ARM GAS  C:\Users\phucd\AppData\Local\Temp\ccTvEAiJ.s 			page 1


   1              		.cpu cortex-m3
   2              		.eabi_attribute 20, 1
   3              		.eabi_attribute 21, 1
   4              		.eabi_attribute 23, 3
   5              		.eabi_attribute 24, 1
   6              		.eabi_attribute 25, 1
   7              		.eabi_attribute 26, 1
   8              		.eabi_attribute 30, 6
   9              		.eabi_attribute 34, 1
  10              		.eabi_attribute 18, 4
  11              		.file	"stm32f1xx_hal_exti.c"
  12              		.text
  13              	.Ltext0:
  14              		.cfi_sections	.debug_frame
  15              		.section	.text.HAL_EXTI_SetConfigLine,"ax",%progbits
  16              		.align	1
  17              		.global	HAL_EXTI_SetConfigLine
  18              		.arch armv7-m
  19              		.syntax unified
  20              		.thumb
  21              		.thumb_func
  22              		.fpu softvfp
  24              	HAL_EXTI_SetConfigLine:
  25              	.LFB65:
  26              		.file 1 "./Drivers/STM32F1xx_HAL_Driver/Src/stm32f1xx_hal_exti.c"
   1:./Drivers/STM32F1xx_HAL_Driver/Src/stm32f1xx_hal_exti.c **** /**
   2:./Drivers/STM32F1xx_HAL_Driver/Src/stm32f1xx_hal_exti.c ****   ******************************************************************************
   3:./Drivers/STM32F1xx_HAL_Driver/Src/stm32f1xx_hal_exti.c ****   * @file    stm32f1xx_hal_exti.c
   4:./Drivers/STM32F1xx_HAL_Driver/Src/stm32f1xx_hal_exti.c ****   * @author  MCD Application Team
   5:./Drivers/STM32F1xx_HAL_Driver/Src/stm32f1xx_hal_exti.c ****   * @brief   EXTI HAL module driver.
   6:./Drivers/STM32F1xx_HAL_Driver/Src/stm32f1xx_hal_exti.c ****   *          This file provides firmware functions to manage the following
   7:./Drivers/STM32F1xx_HAL_Driver/Src/stm32f1xx_hal_exti.c ****   *          functionalities of the Extended Interrupts and events controller (EXTI) peripheral:
   8:./Drivers/STM32F1xx_HAL_Driver/Src/stm32f1xx_hal_exti.c ****   *           + Initialization and de-initialization functions
   9:./Drivers/STM32F1xx_HAL_Driver/Src/stm32f1xx_hal_exti.c ****   *           + IO operation functions
  10:./Drivers/STM32F1xx_HAL_Driver/Src/stm32f1xx_hal_exti.c ****   *
  11:./Drivers/STM32F1xx_HAL_Driver/Src/stm32f1xx_hal_exti.c ****   @verbatim
  12:./Drivers/STM32F1xx_HAL_Driver/Src/stm32f1xx_hal_exti.c ****   ==============================================================================
  13:./Drivers/STM32F1xx_HAL_Driver/Src/stm32f1xx_hal_exti.c ****                     ##### EXTI Peripheral features #####
  14:./Drivers/STM32F1xx_HAL_Driver/Src/stm32f1xx_hal_exti.c ****   ==============================================================================
  15:./Drivers/STM32F1xx_HAL_Driver/Src/stm32f1xx_hal_exti.c ****   [..]
  16:./Drivers/STM32F1xx_HAL_Driver/Src/stm32f1xx_hal_exti.c ****     (+) Each Exti line can be configured within this driver.
  17:./Drivers/STM32F1xx_HAL_Driver/Src/stm32f1xx_hal_exti.c **** 
  18:./Drivers/STM32F1xx_HAL_Driver/Src/stm32f1xx_hal_exti.c ****     (+) Exti line can be configured in 3 different modes
  19:./Drivers/STM32F1xx_HAL_Driver/Src/stm32f1xx_hal_exti.c ****         (++) Interrupt
  20:./Drivers/STM32F1xx_HAL_Driver/Src/stm32f1xx_hal_exti.c ****         (++) Event
  21:./Drivers/STM32F1xx_HAL_Driver/Src/stm32f1xx_hal_exti.c ****         (++) Both of them
  22:./Drivers/STM32F1xx_HAL_Driver/Src/stm32f1xx_hal_exti.c **** 
  23:./Drivers/STM32F1xx_HAL_Driver/Src/stm32f1xx_hal_exti.c ****     (+) Configurable Exti lines can be configured with 3 different triggers
  24:./Drivers/STM32F1xx_HAL_Driver/Src/stm32f1xx_hal_exti.c ****         (++) Rising
  25:./Drivers/STM32F1xx_HAL_Driver/Src/stm32f1xx_hal_exti.c ****         (++) Falling
  26:./Drivers/STM32F1xx_HAL_Driver/Src/stm32f1xx_hal_exti.c ****         (++) Both of them
  27:./Drivers/STM32F1xx_HAL_Driver/Src/stm32f1xx_hal_exti.c **** 
  28:./Drivers/STM32F1xx_HAL_Driver/Src/stm32f1xx_hal_exti.c ****     (+) When set in interrupt mode, configurable Exti lines have two different
  29:./Drivers/STM32F1xx_HAL_Driver/Src/stm32f1xx_hal_exti.c ****         interrupts pending registers which allow to distinguish which transition
  30:./Drivers/STM32F1xx_HAL_Driver/Src/stm32f1xx_hal_exti.c ****         occurs:
  31:./Drivers/STM32F1xx_HAL_Driver/Src/stm32f1xx_hal_exti.c ****         (++) Rising edge pending interrupt
  32:./Drivers/STM32F1xx_HAL_Driver/Src/stm32f1xx_hal_exti.c ****         (++) Falling
ARM GAS  C:\Users\phucd\AppData\Local\Temp\ccTvEAiJ.s 			page 2


  33:./Drivers/STM32F1xx_HAL_Driver/Src/stm32f1xx_hal_exti.c **** 
  34:./Drivers/STM32F1xx_HAL_Driver/Src/stm32f1xx_hal_exti.c ****     (+) Exti lines 0 to 15 are linked to gpio pin number 0 to 15. Gpio port can
  35:./Drivers/STM32F1xx_HAL_Driver/Src/stm32f1xx_hal_exti.c ****         be selected through multiplexer.
  36:./Drivers/STM32F1xx_HAL_Driver/Src/stm32f1xx_hal_exti.c **** 
  37:./Drivers/STM32F1xx_HAL_Driver/Src/stm32f1xx_hal_exti.c ****                      ##### How to use this driver #####
  38:./Drivers/STM32F1xx_HAL_Driver/Src/stm32f1xx_hal_exti.c ****   ==============================================================================
  39:./Drivers/STM32F1xx_HAL_Driver/Src/stm32f1xx_hal_exti.c ****   [..]
  40:./Drivers/STM32F1xx_HAL_Driver/Src/stm32f1xx_hal_exti.c **** 
  41:./Drivers/STM32F1xx_HAL_Driver/Src/stm32f1xx_hal_exti.c ****     (#) Configure the EXTI line using HAL_EXTI_SetConfigLine().
  42:./Drivers/STM32F1xx_HAL_Driver/Src/stm32f1xx_hal_exti.c ****         (++) Choose the interrupt line number by setting "Line" member from
  43:./Drivers/STM32F1xx_HAL_Driver/Src/stm32f1xx_hal_exti.c ****              EXTI_ConfigTypeDef structure.
  44:./Drivers/STM32F1xx_HAL_Driver/Src/stm32f1xx_hal_exti.c ****         (++) Configure the interrupt and/or event mode using "Mode" member from
  45:./Drivers/STM32F1xx_HAL_Driver/Src/stm32f1xx_hal_exti.c ****              EXTI_ConfigTypeDef structure.
  46:./Drivers/STM32F1xx_HAL_Driver/Src/stm32f1xx_hal_exti.c ****         (++) For configurable lines, configure rising and/or falling trigger
  47:./Drivers/STM32F1xx_HAL_Driver/Src/stm32f1xx_hal_exti.c ****              "Trigger" member from EXTI_ConfigTypeDef structure.
  48:./Drivers/STM32F1xx_HAL_Driver/Src/stm32f1xx_hal_exti.c ****         (++) For Exti lines linked to gpio, choose gpio port using "GPIOSel"
  49:./Drivers/STM32F1xx_HAL_Driver/Src/stm32f1xx_hal_exti.c ****              member from GPIO_InitTypeDef structure.
  50:./Drivers/STM32F1xx_HAL_Driver/Src/stm32f1xx_hal_exti.c **** 
  51:./Drivers/STM32F1xx_HAL_Driver/Src/stm32f1xx_hal_exti.c ****     (#) Get current Exti configuration of a dedicated line using
  52:./Drivers/STM32F1xx_HAL_Driver/Src/stm32f1xx_hal_exti.c ****         HAL_EXTI_GetConfigLine().
  53:./Drivers/STM32F1xx_HAL_Driver/Src/stm32f1xx_hal_exti.c ****         (++) Provide exiting handle as parameter.
  54:./Drivers/STM32F1xx_HAL_Driver/Src/stm32f1xx_hal_exti.c ****         (++) Provide pointer on EXTI_ConfigTypeDef structure as second parameter.
  55:./Drivers/STM32F1xx_HAL_Driver/Src/stm32f1xx_hal_exti.c **** 
  56:./Drivers/STM32F1xx_HAL_Driver/Src/stm32f1xx_hal_exti.c ****     (#) Clear Exti configuration of a dedicated line using HAL_EXTI_GetConfigLine().
  57:./Drivers/STM32F1xx_HAL_Driver/Src/stm32f1xx_hal_exti.c ****         (++) Provide exiting handle as parameter.
  58:./Drivers/STM32F1xx_HAL_Driver/Src/stm32f1xx_hal_exti.c **** 
  59:./Drivers/STM32F1xx_HAL_Driver/Src/stm32f1xx_hal_exti.c ****     (#) Register callback to treat Exti interrupts using HAL_EXTI_RegisterCallback().
  60:./Drivers/STM32F1xx_HAL_Driver/Src/stm32f1xx_hal_exti.c ****         (++) Provide exiting handle as first parameter.
  61:./Drivers/STM32F1xx_HAL_Driver/Src/stm32f1xx_hal_exti.c ****         (++) Provide which callback will be registered using one value from
  62:./Drivers/STM32F1xx_HAL_Driver/Src/stm32f1xx_hal_exti.c ****              EXTI_CallbackIDTypeDef.
  63:./Drivers/STM32F1xx_HAL_Driver/Src/stm32f1xx_hal_exti.c ****         (++) Provide callback function pointer.
  64:./Drivers/STM32F1xx_HAL_Driver/Src/stm32f1xx_hal_exti.c **** 
  65:./Drivers/STM32F1xx_HAL_Driver/Src/stm32f1xx_hal_exti.c ****     (#) Get interrupt pending bit using HAL_EXTI_GetPending().
  66:./Drivers/STM32F1xx_HAL_Driver/Src/stm32f1xx_hal_exti.c **** 
  67:./Drivers/STM32F1xx_HAL_Driver/Src/stm32f1xx_hal_exti.c ****     (#) Clear interrupt pending bit using HAL_EXTI_GetPending().
  68:./Drivers/STM32F1xx_HAL_Driver/Src/stm32f1xx_hal_exti.c **** 
  69:./Drivers/STM32F1xx_HAL_Driver/Src/stm32f1xx_hal_exti.c ****     (#) Generate software interrupt using HAL_EXTI_GenerateSWI().
  70:./Drivers/STM32F1xx_HAL_Driver/Src/stm32f1xx_hal_exti.c **** 
  71:./Drivers/STM32F1xx_HAL_Driver/Src/stm32f1xx_hal_exti.c ****   @endverbatim
  72:./Drivers/STM32F1xx_HAL_Driver/Src/stm32f1xx_hal_exti.c ****   ******************************************************************************
  73:./Drivers/STM32F1xx_HAL_Driver/Src/stm32f1xx_hal_exti.c ****   * @attention
  74:./Drivers/STM32F1xx_HAL_Driver/Src/stm32f1xx_hal_exti.c ****   *
  75:./Drivers/STM32F1xx_HAL_Driver/Src/stm32f1xx_hal_exti.c ****   * <h2><center>&copy; Copyright (c) 2019 STMicroelectronics.
  76:./Drivers/STM32F1xx_HAL_Driver/Src/stm32f1xx_hal_exti.c ****   * All rights reserved.</center></h2>
  77:./Drivers/STM32F1xx_HAL_Driver/Src/stm32f1xx_hal_exti.c ****   *
  78:./Drivers/STM32F1xx_HAL_Driver/Src/stm32f1xx_hal_exti.c ****   * This software component is licensed by ST under BSD 3-Clause license,
  79:./Drivers/STM32F1xx_HAL_Driver/Src/stm32f1xx_hal_exti.c ****   * the "License"; You may not use this file except in compliance with the
  80:./Drivers/STM32F1xx_HAL_Driver/Src/stm32f1xx_hal_exti.c ****   * License. You may obtain a copy of the License at:
  81:./Drivers/STM32F1xx_HAL_Driver/Src/stm32f1xx_hal_exti.c ****   *                        opensource.org/licenses/BSD-3-Clause
  82:./Drivers/STM32F1xx_HAL_Driver/Src/stm32f1xx_hal_exti.c ****   *
  83:./Drivers/STM32F1xx_HAL_Driver/Src/stm32f1xx_hal_exti.c ****   ******************************************************************************
  84:./Drivers/STM32F1xx_HAL_Driver/Src/stm32f1xx_hal_exti.c ****   */
  85:./Drivers/STM32F1xx_HAL_Driver/Src/stm32f1xx_hal_exti.c **** 
  86:./Drivers/STM32F1xx_HAL_Driver/Src/stm32f1xx_hal_exti.c **** /* Includes ------------------------------------------------------------------*/
  87:./Drivers/STM32F1xx_HAL_Driver/Src/stm32f1xx_hal_exti.c **** #include "stm32f1xx_hal.h"
  88:./Drivers/STM32F1xx_HAL_Driver/Src/stm32f1xx_hal_exti.c **** 
  89:./Drivers/STM32F1xx_HAL_Driver/Src/stm32f1xx_hal_exti.c **** /** @addtogroup STM32F1xx_HAL_Driver
ARM GAS  C:\Users\phucd\AppData\Local\Temp\ccTvEAiJ.s 			page 3


  90:./Drivers/STM32F1xx_HAL_Driver/Src/stm32f1xx_hal_exti.c ****   * @{
  91:./Drivers/STM32F1xx_HAL_Driver/Src/stm32f1xx_hal_exti.c ****   */
  92:./Drivers/STM32F1xx_HAL_Driver/Src/stm32f1xx_hal_exti.c **** 
  93:./Drivers/STM32F1xx_HAL_Driver/Src/stm32f1xx_hal_exti.c **** /** @addtogroup EXTI
  94:./Drivers/STM32F1xx_HAL_Driver/Src/stm32f1xx_hal_exti.c ****   * @{
  95:./Drivers/STM32F1xx_HAL_Driver/Src/stm32f1xx_hal_exti.c ****   */
  96:./Drivers/STM32F1xx_HAL_Driver/Src/stm32f1xx_hal_exti.c **** /** MISRA C:2012 deviation rule has been granted for following rule:
  97:./Drivers/STM32F1xx_HAL_Driver/Src/stm32f1xx_hal_exti.c ****   * Rule-18.1_b - Medium: Array `EXTICR' 1st subscript interval [0,7] may be out
  98:./Drivers/STM32F1xx_HAL_Driver/Src/stm32f1xx_hal_exti.c ****   * of bounds [0,3] in following API :
  99:./Drivers/STM32F1xx_HAL_Driver/Src/stm32f1xx_hal_exti.c ****   * HAL_EXTI_SetConfigLine
 100:./Drivers/STM32F1xx_HAL_Driver/Src/stm32f1xx_hal_exti.c ****   * HAL_EXTI_GetConfigLine
 101:./Drivers/STM32F1xx_HAL_Driver/Src/stm32f1xx_hal_exti.c ****   * HAL_EXTI_ClearConfigLine
 102:./Drivers/STM32F1xx_HAL_Driver/Src/stm32f1xx_hal_exti.c ****   */
 103:./Drivers/STM32F1xx_HAL_Driver/Src/stm32f1xx_hal_exti.c **** 
 104:./Drivers/STM32F1xx_HAL_Driver/Src/stm32f1xx_hal_exti.c **** #ifdef HAL_EXTI_MODULE_ENABLED
 105:./Drivers/STM32F1xx_HAL_Driver/Src/stm32f1xx_hal_exti.c **** 
 106:./Drivers/STM32F1xx_HAL_Driver/Src/stm32f1xx_hal_exti.c **** /* Private typedef -----------------------------------------------------------*/
 107:./Drivers/STM32F1xx_HAL_Driver/Src/stm32f1xx_hal_exti.c **** /* Private defines -----------------------------------------------------------*/
 108:./Drivers/STM32F1xx_HAL_Driver/Src/stm32f1xx_hal_exti.c **** /** @defgroup EXTI_Private_Constants EXTI Private Constants
 109:./Drivers/STM32F1xx_HAL_Driver/Src/stm32f1xx_hal_exti.c ****   * @{
 110:./Drivers/STM32F1xx_HAL_Driver/Src/stm32f1xx_hal_exti.c ****   */
 111:./Drivers/STM32F1xx_HAL_Driver/Src/stm32f1xx_hal_exti.c **** 
 112:./Drivers/STM32F1xx_HAL_Driver/Src/stm32f1xx_hal_exti.c **** /**
 113:./Drivers/STM32F1xx_HAL_Driver/Src/stm32f1xx_hal_exti.c ****   * @}
 114:./Drivers/STM32F1xx_HAL_Driver/Src/stm32f1xx_hal_exti.c ****   */
 115:./Drivers/STM32F1xx_HAL_Driver/Src/stm32f1xx_hal_exti.c **** 
 116:./Drivers/STM32F1xx_HAL_Driver/Src/stm32f1xx_hal_exti.c **** /* Private macros ------------------------------------------------------------*/
 117:./Drivers/STM32F1xx_HAL_Driver/Src/stm32f1xx_hal_exti.c **** /* Private variables ---------------------------------------------------------*/
 118:./Drivers/STM32F1xx_HAL_Driver/Src/stm32f1xx_hal_exti.c **** /* Private function prototypes -----------------------------------------------*/
 119:./Drivers/STM32F1xx_HAL_Driver/Src/stm32f1xx_hal_exti.c **** /* Exported functions --------------------------------------------------------*/
 120:./Drivers/STM32F1xx_HAL_Driver/Src/stm32f1xx_hal_exti.c **** 
 121:./Drivers/STM32F1xx_HAL_Driver/Src/stm32f1xx_hal_exti.c **** /** @addtogroup EXTI_Exported_Functions
 122:./Drivers/STM32F1xx_HAL_Driver/Src/stm32f1xx_hal_exti.c ****   * @{
 123:./Drivers/STM32F1xx_HAL_Driver/Src/stm32f1xx_hal_exti.c ****   */
 124:./Drivers/STM32F1xx_HAL_Driver/Src/stm32f1xx_hal_exti.c **** 
 125:./Drivers/STM32F1xx_HAL_Driver/Src/stm32f1xx_hal_exti.c **** /** @addtogroup EXTI_Exported_Functions_Group1
 126:./Drivers/STM32F1xx_HAL_Driver/Src/stm32f1xx_hal_exti.c ****   *  @brief    Configuration functions
 127:./Drivers/STM32F1xx_HAL_Driver/Src/stm32f1xx_hal_exti.c ****   *
 128:./Drivers/STM32F1xx_HAL_Driver/Src/stm32f1xx_hal_exti.c **** @verbatim
 129:./Drivers/STM32F1xx_HAL_Driver/Src/stm32f1xx_hal_exti.c ****  ===============================================================================
 130:./Drivers/STM32F1xx_HAL_Driver/Src/stm32f1xx_hal_exti.c ****               ##### Configuration functions #####
 131:./Drivers/STM32F1xx_HAL_Driver/Src/stm32f1xx_hal_exti.c ****  ===============================================================================
 132:./Drivers/STM32F1xx_HAL_Driver/Src/stm32f1xx_hal_exti.c **** 
 133:./Drivers/STM32F1xx_HAL_Driver/Src/stm32f1xx_hal_exti.c **** @endverbatim
 134:./Drivers/STM32F1xx_HAL_Driver/Src/stm32f1xx_hal_exti.c ****   * @{
 135:./Drivers/STM32F1xx_HAL_Driver/Src/stm32f1xx_hal_exti.c ****   */
 136:./Drivers/STM32F1xx_HAL_Driver/Src/stm32f1xx_hal_exti.c **** 
 137:./Drivers/STM32F1xx_HAL_Driver/Src/stm32f1xx_hal_exti.c **** /**
 138:./Drivers/STM32F1xx_HAL_Driver/Src/stm32f1xx_hal_exti.c ****   * @brief  Set configuration of a dedicated Exti line.
 139:./Drivers/STM32F1xx_HAL_Driver/Src/stm32f1xx_hal_exti.c ****   * @param  hexti Exti handle.
 140:./Drivers/STM32F1xx_HAL_Driver/Src/stm32f1xx_hal_exti.c ****   * @param  pExtiConfig Pointer on EXTI configuration to be set.
 141:./Drivers/STM32F1xx_HAL_Driver/Src/stm32f1xx_hal_exti.c ****   * @retval HAL Status.
 142:./Drivers/STM32F1xx_HAL_Driver/Src/stm32f1xx_hal_exti.c ****   */
 143:./Drivers/STM32F1xx_HAL_Driver/Src/stm32f1xx_hal_exti.c **** HAL_StatusTypeDef HAL_EXTI_SetConfigLine(EXTI_HandleTypeDef *hexti, EXTI_ConfigTypeDef *pExtiConfig
 144:./Drivers/STM32F1xx_HAL_Driver/Src/stm32f1xx_hal_exti.c **** {
  27              		.loc 1 144 1
  28              		.cfi_startproc
ARM GAS  C:\Users\phucd\AppData\Local\Temp\ccTvEAiJ.s 			page 4


  29              		@ args = 0, pretend = 0, frame = 24
  30              		@ frame_needed = 1, uses_anonymous_args = 0
  31              		@ link register save eliminated.
  32 0000 80B4     		push	{r7}
  33              		.cfi_def_cfa_offset 4
  34              		.cfi_offset 7, -4
  35 0002 87B0     		sub	sp, sp, #28
  36              		.cfi_def_cfa_offset 32
  37 0004 00AF     		add	r7, sp, #0
  38              		.cfi_def_cfa_register 7
  39 0006 7860     		str	r0, [r7, #4]
  40 0008 3960     		str	r1, [r7]
 145:./Drivers/STM32F1xx_HAL_Driver/Src/stm32f1xx_hal_exti.c ****   uint32_t regval;
 146:./Drivers/STM32F1xx_HAL_Driver/Src/stm32f1xx_hal_exti.c ****   uint32_t linepos;
 147:./Drivers/STM32F1xx_HAL_Driver/Src/stm32f1xx_hal_exti.c ****   uint32_t maskline;
 148:./Drivers/STM32F1xx_HAL_Driver/Src/stm32f1xx_hal_exti.c **** 
 149:./Drivers/STM32F1xx_HAL_Driver/Src/stm32f1xx_hal_exti.c ****   /* Check null pointer */
 150:./Drivers/STM32F1xx_HAL_Driver/Src/stm32f1xx_hal_exti.c ****   if ((hexti == NULL) || (pExtiConfig == NULL))
  41              		.loc 1 150 6
  42 000a 7B68     		ldr	r3, [r7, #4]
  43 000c 002B     		cmp	r3, #0
  44 000e 02D0     		beq	.L2
  45              		.loc 1 150 23 discriminator 1
  46 0010 3B68     		ldr	r3, [r7]
  47 0012 002B     		cmp	r3, #0
  48 0014 01D1     		bne	.L3
  49              	.L2:
 151:./Drivers/STM32F1xx_HAL_Driver/Src/stm32f1xx_hal_exti.c ****   {
 152:./Drivers/STM32F1xx_HAL_Driver/Src/stm32f1xx_hal_exti.c ****     return HAL_ERROR;
  50              		.loc 1 152 12
  51 0016 0123     		movs	r3, #1
  52 0018 8FE0     		b	.L4
  53              	.L3:
 153:./Drivers/STM32F1xx_HAL_Driver/Src/stm32f1xx_hal_exti.c ****   }
 154:./Drivers/STM32F1xx_HAL_Driver/Src/stm32f1xx_hal_exti.c **** 
 155:./Drivers/STM32F1xx_HAL_Driver/Src/stm32f1xx_hal_exti.c ****   /* Check parameters */
 156:./Drivers/STM32F1xx_HAL_Driver/Src/stm32f1xx_hal_exti.c ****   assert_param(IS_EXTI_LINE(pExtiConfig->Line));
 157:./Drivers/STM32F1xx_HAL_Driver/Src/stm32f1xx_hal_exti.c ****   assert_param(IS_EXTI_MODE(pExtiConfig->Mode));
 158:./Drivers/STM32F1xx_HAL_Driver/Src/stm32f1xx_hal_exti.c **** 
 159:./Drivers/STM32F1xx_HAL_Driver/Src/stm32f1xx_hal_exti.c ****   /* Assign line number to handle */
 160:./Drivers/STM32F1xx_HAL_Driver/Src/stm32f1xx_hal_exti.c ****   hexti->Line = pExtiConfig->Line;
  54              		.loc 1 160 28
  55 001a 3B68     		ldr	r3, [r7]
  56 001c 1A68     		ldr	r2, [r3]
  57              		.loc 1 160 15
  58 001e 7B68     		ldr	r3, [r7, #4]
  59 0020 1A60     		str	r2, [r3]
 161:./Drivers/STM32F1xx_HAL_Driver/Src/stm32f1xx_hal_exti.c **** 
 162:./Drivers/STM32F1xx_HAL_Driver/Src/stm32f1xx_hal_exti.c ****   /* Compute line mask */
 163:./Drivers/STM32F1xx_HAL_Driver/Src/stm32f1xx_hal_exti.c ****   linepos = (pExtiConfig->Line & EXTI_PIN_MASK);
  60              		.loc 1 163 25
  61 0022 3B68     		ldr	r3, [r7]
  62 0024 1B68     		ldr	r3, [r3]
  63              		.loc 1 163 11
  64 0026 03F01F03 		and	r3, r3, #31
  65 002a 7B61     		str	r3, [r7, #20]
 164:./Drivers/STM32F1xx_HAL_Driver/Src/stm32f1xx_hal_exti.c ****   maskline = (1uL << linepos);
ARM GAS  C:\Users\phucd\AppData\Local\Temp\ccTvEAiJ.s 			page 5


  66              		.loc 1 164 12
  67 002c 0122     		movs	r2, #1
  68 002e 7B69     		ldr	r3, [r7, #20]
  69 0030 02FA03F3 		lsl	r3, r2, r3
  70 0034 3B61     		str	r3, [r7, #16]
 165:./Drivers/STM32F1xx_HAL_Driver/Src/stm32f1xx_hal_exti.c **** 
 166:./Drivers/STM32F1xx_HAL_Driver/Src/stm32f1xx_hal_exti.c ****   /* Configure triggers for configurable lines */
 167:./Drivers/STM32F1xx_HAL_Driver/Src/stm32f1xx_hal_exti.c ****   if ((pExtiConfig->Line & EXTI_CONFIG) != 0x00u)
  71              		.loc 1 167 19
  72 0036 3B68     		ldr	r3, [r7]
  73 0038 1B68     		ldr	r3, [r3]
  74              		.loc 1 167 26
  75 003a 03F00073 		and	r3, r3, #33554432
  76              		.loc 1 167 6
  77 003e 002B     		cmp	r3, #0
  78 0040 52D0     		beq	.L5
 168:./Drivers/STM32F1xx_HAL_Driver/Src/stm32f1xx_hal_exti.c ****   {
 169:./Drivers/STM32F1xx_HAL_Driver/Src/stm32f1xx_hal_exti.c ****     assert_param(IS_EXTI_TRIGGER(pExtiConfig->Trigger));
 170:./Drivers/STM32F1xx_HAL_Driver/Src/stm32f1xx_hal_exti.c **** 
 171:./Drivers/STM32F1xx_HAL_Driver/Src/stm32f1xx_hal_exti.c ****     /* Configure rising trigger */
 172:./Drivers/STM32F1xx_HAL_Driver/Src/stm32f1xx_hal_exti.c ****     /* Mask or set line */
 173:./Drivers/STM32F1xx_HAL_Driver/Src/stm32f1xx_hal_exti.c ****     if ((pExtiConfig->Trigger & EXTI_TRIGGER_RISING) != 0x00u)
  79              		.loc 1 173 21
  80 0042 3B68     		ldr	r3, [r7]
  81 0044 9B68     		ldr	r3, [r3, #8]
  82              		.loc 1 173 31
  83 0046 03F00103 		and	r3, r3, #1
  84              		.loc 1 173 8
  85 004a 002B     		cmp	r3, #0
  86 004c 06D0     		beq	.L6
 174:./Drivers/STM32F1xx_HAL_Driver/Src/stm32f1xx_hal_exti.c ****     {
 175:./Drivers/STM32F1xx_HAL_Driver/Src/stm32f1xx_hal_exti.c ****       EXTI->RTSR |= maskline;
  87              		.loc 1 175 18
  88 004e 3D4B     		ldr	r3, .L14
  89 0050 9A68     		ldr	r2, [r3, #8]
  90 0052 3C49     		ldr	r1, .L14
  91 0054 3B69     		ldr	r3, [r7, #16]
  92 0056 1343     		orrs	r3, r3, r2
  93 0058 8B60     		str	r3, [r1, #8]
  94 005a 06E0     		b	.L7
  95              	.L6:
 176:./Drivers/STM32F1xx_HAL_Driver/Src/stm32f1xx_hal_exti.c ****     }
 177:./Drivers/STM32F1xx_HAL_Driver/Src/stm32f1xx_hal_exti.c ****     else
 178:./Drivers/STM32F1xx_HAL_Driver/Src/stm32f1xx_hal_exti.c ****     {
 179:./Drivers/STM32F1xx_HAL_Driver/Src/stm32f1xx_hal_exti.c ****       EXTI->RTSR &= ~maskline;
  96              		.loc 1 179 18
  97 005c 394B     		ldr	r3, .L14
  98 005e 9A68     		ldr	r2, [r3, #8]
  99              		.loc 1 179 21
 100 0060 3B69     		ldr	r3, [r7, #16]
 101 0062 DB43     		mvns	r3, r3
 102              		.loc 1 179 18
 103 0064 3749     		ldr	r1, .L14
 104 0066 1340     		ands	r3, r3, r2
 105 0068 8B60     		str	r3, [r1, #8]
 106              	.L7:
 180:./Drivers/STM32F1xx_HAL_Driver/Src/stm32f1xx_hal_exti.c ****     }
ARM GAS  C:\Users\phucd\AppData\Local\Temp\ccTvEAiJ.s 			page 6


 181:./Drivers/STM32F1xx_HAL_Driver/Src/stm32f1xx_hal_exti.c **** 
 182:./Drivers/STM32F1xx_HAL_Driver/Src/stm32f1xx_hal_exti.c ****     /* Configure falling trigger */
 183:./Drivers/STM32F1xx_HAL_Driver/Src/stm32f1xx_hal_exti.c ****     /* Mask or set line */
 184:./Drivers/STM32F1xx_HAL_Driver/Src/stm32f1xx_hal_exti.c ****     if ((pExtiConfig->Trigger & EXTI_TRIGGER_FALLING) != 0x00u)
 107              		.loc 1 184 21
 108 006a 3B68     		ldr	r3, [r7]
 109 006c 9B68     		ldr	r3, [r3, #8]
 110              		.loc 1 184 31
 111 006e 03F00203 		and	r3, r3, #2
 112              		.loc 1 184 8
 113 0072 002B     		cmp	r3, #0
 114 0074 06D0     		beq	.L8
 185:./Drivers/STM32F1xx_HAL_Driver/Src/stm32f1xx_hal_exti.c ****     {
 186:./Drivers/STM32F1xx_HAL_Driver/Src/stm32f1xx_hal_exti.c ****       EXTI->FTSR |= maskline;
 115              		.loc 1 186 18
 116 0076 334B     		ldr	r3, .L14
 117 0078 DA68     		ldr	r2, [r3, #12]
 118 007a 3249     		ldr	r1, .L14
 119 007c 3B69     		ldr	r3, [r7, #16]
 120 007e 1343     		orrs	r3, r3, r2
 121 0080 CB60     		str	r3, [r1, #12]
 122 0082 06E0     		b	.L9
 123              	.L8:
 187:./Drivers/STM32F1xx_HAL_Driver/Src/stm32f1xx_hal_exti.c ****     }
 188:./Drivers/STM32F1xx_HAL_Driver/Src/stm32f1xx_hal_exti.c ****     else
 189:./Drivers/STM32F1xx_HAL_Driver/Src/stm32f1xx_hal_exti.c ****     {
 190:./Drivers/STM32F1xx_HAL_Driver/Src/stm32f1xx_hal_exti.c ****       EXTI->FTSR &= ~maskline;
 124              		.loc 1 190 18
 125 0084 2F4B     		ldr	r3, .L14
 126 0086 DA68     		ldr	r2, [r3, #12]
 127              		.loc 1 190 21
 128 0088 3B69     		ldr	r3, [r7, #16]
 129 008a DB43     		mvns	r3, r3
 130              		.loc 1 190 18
 131 008c 2D49     		ldr	r1, .L14
 132 008e 1340     		ands	r3, r3, r2
 133 0090 CB60     		str	r3, [r1, #12]
 134              	.L9:
 191:./Drivers/STM32F1xx_HAL_Driver/Src/stm32f1xx_hal_exti.c ****     }
 192:./Drivers/STM32F1xx_HAL_Driver/Src/stm32f1xx_hal_exti.c **** 
 193:./Drivers/STM32F1xx_HAL_Driver/Src/stm32f1xx_hal_exti.c **** 
 194:./Drivers/STM32F1xx_HAL_Driver/Src/stm32f1xx_hal_exti.c ****     /* Configure gpio port selection in case of gpio exti line */
 195:./Drivers/STM32F1xx_HAL_Driver/Src/stm32f1xx_hal_exti.c ****     if ((pExtiConfig->Line & EXTI_GPIO) == EXTI_GPIO)
 135              		.loc 1 195 21
 136 0092 3B68     		ldr	r3, [r7]
 137 0094 1B68     		ldr	r3, [r3]
 138              		.loc 1 195 28
 139 0096 03F0C063 		and	r3, r3, #100663296
 140              		.loc 1 195 8
 141 009a B3F1C06F 		cmp	r3, #100663296
 142 009e 23D1     		bne	.L5
 196:./Drivers/STM32F1xx_HAL_Driver/Src/stm32f1xx_hal_exti.c ****     {
 197:./Drivers/STM32F1xx_HAL_Driver/Src/stm32f1xx_hal_exti.c ****       assert_param(IS_EXTI_GPIO_PORT(pExtiConfig->GPIOSel));
 198:./Drivers/STM32F1xx_HAL_Driver/Src/stm32f1xx_hal_exti.c ****       assert_param(IS_EXTI_GPIO_PIN(linepos));
 199:./Drivers/STM32F1xx_HAL_Driver/Src/stm32f1xx_hal_exti.c ****       
 200:./Drivers/STM32F1xx_HAL_Driver/Src/stm32f1xx_hal_exti.c ****       regval = AFIO->EXTICR[linepos >> 2u];
 143              		.loc 1 200 20
ARM GAS  C:\Users\phucd\AppData\Local\Temp\ccTvEAiJ.s 			page 7


 144 00a0 294A     		ldr	r2, .L14+4
 145              		.loc 1 200 37
 146 00a2 7B69     		ldr	r3, [r7, #20]
 147 00a4 9B08     		lsrs	r3, r3, #2
 148              		.loc 1 200 14
 149 00a6 0233     		adds	r3, r3, #2
 150 00a8 52F82330 		ldr	r3, [r2, r3, lsl #2]
 151 00ac FB60     		str	r3, [r7, #12]
 201:./Drivers/STM32F1xx_HAL_Driver/Src/stm32f1xx_hal_exti.c ****       regval &= ~(AFIO_EXTICR1_EXTI0 << (AFIO_EXTICR1_EXTI1_Pos * (linepos & 0x03u)));
 152              		.loc 1 201 76
 153 00ae 7B69     		ldr	r3, [r7, #20]
 154 00b0 03F00303 		and	r3, r3, #3
 155              		.loc 1 201 65
 156 00b4 9B00     		lsls	r3, r3, #2
 157              		.loc 1 201 38
 158 00b6 0F22     		movs	r2, #15
 159 00b8 02FA03F3 		lsl	r3, r2, r3
 160              		.loc 1 201 17
 161 00bc DB43     		mvns	r3, r3
 162              		.loc 1 201 14
 163 00be FA68     		ldr	r2, [r7, #12]
 164 00c0 1340     		ands	r3, r3, r2
 165 00c2 FB60     		str	r3, [r7, #12]
 202:./Drivers/STM32F1xx_HAL_Driver/Src/stm32f1xx_hal_exti.c ****       regval |= (pExtiConfig->GPIOSel << (AFIO_EXTICR1_EXTI1_Pos * (linepos & 0x03u)));
 166              		.loc 1 202 29
 167 00c4 3B68     		ldr	r3, [r7]
 168 00c6 DA68     		ldr	r2, [r3, #12]
 169              		.loc 1 202 77
 170 00c8 7B69     		ldr	r3, [r7, #20]
 171 00ca 03F00303 		and	r3, r3, #3
 172              		.loc 1 202 66
 173 00ce 9B00     		lsls	r3, r3, #2
 174              		.loc 1 202 39
 175 00d0 02FA03F3 		lsl	r3, r2, r3
 176              		.loc 1 202 14
 177 00d4 FA68     		ldr	r2, [r7, #12]
 178 00d6 1343     		orrs	r3, r3, r2
 179 00d8 FB60     		str	r3, [r7, #12]
 203:./Drivers/STM32F1xx_HAL_Driver/Src/stm32f1xx_hal_exti.c ****       AFIO->EXTICR[linepos >> 2u] = regval;
 180              		.loc 1 203 11
 181 00da 1B49     		ldr	r1, .L14+4
 182              		.loc 1 203 28
 183 00dc 7B69     		ldr	r3, [r7, #20]
 184 00de 9B08     		lsrs	r3, r3, #2
 185              		.loc 1 203 35
 186 00e0 0233     		adds	r3, r3, #2
 187 00e2 FA68     		ldr	r2, [r7, #12]
 188 00e4 41F82320 		str	r2, [r1, r3, lsl #2]
 189              	.L5:
 204:./Drivers/STM32F1xx_HAL_Driver/Src/stm32f1xx_hal_exti.c ****     }
 205:./Drivers/STM32F1xx_HAL_Driver/Src/stm32f1xx_hal_exti.c ****   }
 206:./Drivers/STM32F1xx_HAL_Driver/Src/stm32f1xx_hal_exti.c **** 
 207:./Drivers/STM32F1xx_HAL_Driver/Src/stm32f1xx_hal_exti.c ****   /* Configure interrupt mode : read current mode */
 208:./Drivers/STM32F1xx_HAL_Driver/Src/stm32f1xx_hal_exti.c ****   /* Mask or set line */
 209:./Drivers/STM32F1xx_HAL_Driver/Src/stm32f1xx_hal_exti.c ****   if ((pExtiConfig->Mode & EXTI_MODE_INTERRUPT) != 0x00u)
 190              		.loc 1 209 19
 191 00e8 3B68     		ldr	r3, [r7]
ARM GAS  C:\Users\phucd\AppData\Local\Temp\ccTvEAiJ.s 			page 8


 192 00ea 5B68     		ldr	r3, [r3, #4]
 193              		.loc 1 209 26
 194 00ec 03F00103 		and	r3, r3, #1
 195              		.loc 1 209 6
 196 00f0 002B     		cmp	r3, #0
 197 00f2 06D0     		beq	.L10
 210:./Drivers/STM32F1xx_HAL_Driver/Src/stm32f1xx_hal_exti.c ****   {
 211:./Drivers/STM32F1xx_HAL_Driver/Src/stm32f1xx_hal_exti.c ****     EXTI->IMR |= maskline;
 198              		.loc 1 211 15
 199 00f4 134B     		ldr	r3, .L14
 200 00f6 1A68     		ldr	r2, [r3]
 201 00f8 1249     		ldr	r1, .L14
 202 00fa 3B69     		ldr	r3, [r7, #16]
 203 00fc 1343     		orrs	r3, r3, r2
 204 00fe 0B60     		str	r3, [r1]
 205 0100 06E0     		b	.L11
 206              	.L10:
 212:./Drivers/STM32F1xx_HAL_Driver/Src/stm32f1xx_hal_exti.c ****   }
 213:./Drivers/STM32F1xx_HAL_Driver/Src/stm32f1xx_hal_exti.c ****   else
 214:./Drivers/STM32F1xx_HAL_Driver/Src/stm32f1xx_hal_exti.c ****   {
 215:./Drivers/STM32F1xx_HAL_Driver/Src/stm32f1xx_hal_exti.c ****     EXTI->IMR &= ~maskline;
 207              		.loc 1 215 15
 208 0102 104B     		ldr	r3, .L14
 209 0104 1A68     		ldr	r2, [r3]
 210              		.loc 1 215 18
 211 0106 3B69     		ldr	r3, [r7, #16]
 212 0108 DB43     		mvns	r3, r3
 213              		.loc 1 215 15
 214 010a 0E49     		ldr	r1, .L14
 215 010c 1340     		ands	r3, r3, r2
 216 010e 0B60     		str	r3, [r1]
 217              	.L11:
 216:./Drivers/STM32F1xx_HAL_Driver/Src/stm32f1xx_hal_exti.c ****   }
 217:./Drivers/STM32F1xx_HAL_Driver/Src/stm32f1xx_hal_exti.c **** 
 218:./Drivers/STM32F1xx_HAL_Driver/Src/stm32f1xx_hal_exti.c ****   /* Configure event mode : read current mode */
 219:./Drivers/STM32F1xx_HAL_Driver/Src/stm32f1xx_hal_exti.c ****   /* Mask or set line */
 220:./Drivers/STM32F1xx_HAL_Driver/Src/stm32f1xx_hal_exti.c ****   if ((pExtiConfig->Mode & EXTI_MODE_EVENT) != 0x00u)
 218              		.loc 1 220 19
 219 0110 3B68     		ldr	r3, [r7]
 220 0112 5B68     		ldr	r3, [r3, #4]
 221              		.loc 1 220 26
 222 0114 03F00203 		and	r3, r3, #2
 223              		.loc 1 220 6
 224 0118 002B     		cmp	r3, #0
 225 011a 06D0     		beq	.L12
 221:./Drivers/STM32F1xx_HAL_Driver/Src/stm32f1xx_hal_exti.c ****   {
 222:./Drivers/STM32F1xx_HAL_Driver/Src/stm32f1xx_hal_exti.c ****     EXTI->EMR |= maskline;
 226              		.loc 1 222 15
 227 011c 094B     		ldr	r3, .L14
 228 011e 5A68     		ldr	r2, [r3, #4]
 229 0120 0849     		ldr	r1, .L14
 230 0122 3B69     		ldr	r3, [r7, #16]
 231 0124 1343     		orrs	r3, r3, r2
 232 0126 4B60     		str	r3, [r1, #4]
 233 0128 06E0     		b	.L13
 234              	.L12:
 223:./Drivers/STM32F1xx_HAL_Driver/Src/stm32f1xx_hal_exti.c ****   }
ARM GAS  C:\Users\phucd\AppData\Local\Temp\ccTvEAiJ.s 			page 9


 224:./Drivers/STM32F1xx_HAL_Driver/Src/stm32f1xx_hal_exti.c ****   else
 225:./Drivers/STM32F1xx_HAL_Driver/Src/stm32f1xx_hal_exti.c ****   {
 226:./Drivers/STM32F1xx_HAL_Driver/Src/stm32f1xx_hal_exti.c ****     EXTI->EMR &= ~maskline;
 235              		.loc 1 226 15
 236 012a 064B     		ldr	r3, .L14
 237 012c 5A68     		ldr	r2, [r3, #4]
 238              		.loc 1 226 18
 239 012e 3B69     		ldr	r3, [r7, #16]
 240 0130 DB43     		mvns	r3, r3
 241              		.loc 1 226 15
 242 0132 0449     		ldr	r1, .L14
 243 0134 1340     		ands	r3, r3, r2
 244 0136 4B60     		str	r3, [r1, #4]
 245              	.L13:
 227:./Drivers/STM32F1xx_HAL_Driver/Src/stm32f1xx_hal_exti.c ****   }
 228:./Drivers/STM32F1xx_HAL_Driver/Src/stm32f1xx_hal_exti.c **** 
 229:./Drivers/STM32F1xx_HAL_Driver/Src/stm32f1xx_hal_exti.c ****   return HAL_OK;
 246              		.loc 1 229 10
 247 0138 0023     		movs	r3, #0
 248              	.L4:
 230:./Drivers/STM32F1xx_HAL_Driver/Src/stm32f1xx_hal_exti.c **** }
 249              		.loc 1 230 1
 250 013a 1846     		mov	r0, r3
 251 013c 1C37     		adds	r7, r7, #28
 252              		.cfi_def_cfa_offset 4
 253 013e BD46     		mov	sp, r7
 254              		.cfi_def_cfa_register 13
 255              		@ sp needed
 256 0140 80BC     		pop	{r7}
 257              		.cfi_restore 7
 258              		.cfi_def_cfa_offset 0
 259 0142 7047     		bx	lr
 260              	.L15:
 261              		.align	2
 262              	.L14:
 263 0144 00040140 		.word	1073808384
 264 0148 00000140 		.word	1073807360
 265              		.cfi_endproc
 266              	.LFE65:
 268              		.section	.text.HAL_EXTI_GetConfigLine,"ax",%progbits
 269              		.align	1
 270              		.global	HAL_EXTI_GetConfigLine
 271              		.syntax unified
 272              		.thumb
 273              		.thumb_func
 274              		.fpu softvfp
 276              	HAL_EXTI_GetConfigLine:
 277              	.LFB66:
 231:./Drivers/STM32F1xx_HAL_Driver/Src/stm32f1xx_hal_exti.c **** 
 232:./Drivers/STM32F1xx_HAL_Driver/Src/stm32f1xx_hal_exti.c **** /**
 233:./Drivers/STM32F1xx_HAL_Driver/Src/stm32f1xx_hal_exti.c ****   * @brief  Get configuration of a dedicated Exti line.
 234:./Drivers/STM32F1xx_HAL_Driver/Src/stm32f1xx_hal_exti.c ****   * @param  hexti Exti handle.
 235:./Drivers/STM32F1xx_HAL_Driver/Src/stm32f1xx_hal_exti.c ****   * @param  pExtiConfig Pointer on structure to store Exti configuration.
 236:./Drivers/STM32F1xx_HAL_Driver/Src/stm32f1xx_hal_exti.c ****   * @retval HAL Status.
 237:./Drivers/STM32F1xx_HAL_Driver/Src/stm32f1xx_hal_exti.c ****   */
 238:./Drivers/STM32F1xx_HAL_Driver/Src/stm32f1xx_hal_exti.c **** HAL_StatusTypeDef HAL_EXTI_GetConfigLine(EXTI_HandleTypeDef *hexti, EXTI_ConfigTypeDef *pExtiConfig
 239:./Drivers/STM32F1xx_HAL_Driver/Src/stm32f1xx_hal_exti.c **** {
ARM GAS  C:\Users\phucd\AppData\Local\Temp\ccTvEAiJ.s 			page 10


 278              		.loc 1 239 1
 279              		.cfi_startproc
 280              		@ args = 0, pretend = 0, frame = 24
 281              		@ frame_needed = 1, uses_anonymous_args = 0
 282              		@ link register save eliminated.
 283 0000 80B4     		push	{r7}
 284              		.cfi_def_cfa_offset 4
 285              		.cfi_offset 7, -4
 286 0002 87B0     		sub	sp, sp, #28
 287              		.cfi_def_cfa_offset 32
 288 0004 00AF     		add	r7, sp, #0
 289              		.cfi_def_cfa_register 7
 290 0006 7860     		str	r0, [r7, #4]
 291 0008 3960     		str	r1, [r7]
 240:./Drivers/STM32F1xx_HAL_Driver/Src/stm32f1xx_hal_exti.c ****   uint32_t regval;
 241:./Drivers/STM32F1xx_HAL_Driver/Src/stm32f1xx_hal_exti.c ****   uint32_t linepos;
 242:./Drivers/STM32F1xx_HAL_Driver/Src/stm32f1xx_hal_exti.c ****   uint32_t maskline;
 243:./Drivers/STM32F1xx_HAL_Driver/Src/stm32f1xx_hal_exti.c **** 
 244:./Drivers/STM32F1xx_HAL_Driver/Src/stm32f1xx_hal_exti.c ****   /* Check null pointer */
 245:./Drivers/STM32F1xx_HAL_Driver/Src/stm32f1xx_hal_exti.c ****   if ((hexti == NULL) || (pExtiConfig == NULL))
 292              		.loc 1 245 6
 293 000a 7B68     		ldr	r3, [r7, #4]
 294 000c 002B     		cmp	r3, #0
 295 000e 02D0     		beq	.L17
 296              		.loc 1 245 23 discriminator 1
 297 0010 3B68     		ldr	r3, [r7]
 298 0012 002B     		cmp	r3, #0
 299 0014 01D1     		bne	.L18
 300              	.L17:
 246:./Drivers/STM32F1xx_HAL_Driver/Src/stm32f1xx_hal_exti.c ****   {
 247:./Drivers/STM32F1xx_HAL_Driver/Src/stm32f1xx_hal_exti.c ****     return HAL_ERROR;
 301              		.loc 1 247 12
 302 0016 0123     		movs	r3, #1
 303 0018 61E0     		b	.L19
 304              	.L18:
 248:./Drivers/STM32F1xx_HAL_Driver/Src/stm32f1xx_hal_exti.c ****   }
 249:./Drivers/STM32F1xx_HAL_Driver/Src/stm32f1xx_hal_exti.c **** 
 250:./Drivers/STM32F1xx_HAL_Driver/Src/stm32f1xx_hal_exti.c ****   /* Check the parameter */
 251:./Drivers/STM32F1xx_HAL_Driver/Src/stm32f1xx_hal_exti.c ****   assert_param(IS_EXTI_LINE(hexti->Line));
 252:./Drivers/STM32F1xx_HAL_Driver/Src/stm32f1xx_hal_exti.c **** 
 253:./Drivers/STM32F1xx_HAL_Driver/Src/stm32f1xx_hal_exti.c ****   /* Store handle line number to configuration structure */
 254:./Drivers/STM32F1xx_HAL_Driver/Src/stm32f1xx_hal_exti.c ****   pExtiConfig->Line = hexti->Line;
 305              		.loc 1 254 28
 306 001a 7B68     		ldr	r3, [r7, #4]
 307 001c 1A68     		ldr	r2, [r3]
 308              		.loc 1 254 21
 309 001e 3B68     		ldr	r3, [r7]
 310 0020 1A60     		str	r2, [r3]
 255:./Drivers/STM32F1xx_HAL_Driver/Src/stm32f1xx_hal_exti.c **** 
 256:./Drivers/STM32F1xx_HAL_Driver/Src/stm32f1xx_hal_exti.c ****   /* Compute line mask */
 257:./Drivers/STM32F1xx_HAL_Driver/Src/stm32f1xx_hal_exti.c ****   linepos = (pExtiConfig->Line & EXTI_PIN_MASK);
 311              		.loc 1 257 25
 312 0022 3B68     		ldr	r3, [r7]
 313 0024 1B68     		ldr	r3, [r3]
 314              		.loc 1 257 11
 315 0026 03F01F03 		and	r3, r3, #31
 316 002a 7B61     		str	r3, [r7, #20]
ARM GAS  C:\Users\phucd\AppData\Local\Temp\ccTvEAiJ.s 			page 11


 258:./Drivers/STM32F1xx_HAL_Driver/Src/stm32f1xx_hal_exti.c ****   maskline = (1uL << linepos);
 317              		.loc 1 258 12
 318 002c 0122     		movs	r2, #1
 319 002e 7B69     		ldr	r3, [r7, #20]
 320 0030 02FA03F3 		lsl	r3, r2, r3
 321 0034 3B61     		str	r3, [r7, #16]
 259:./Drivers/STM32F1xx_HAL_Driver/Src/stm32f1xx_hal_exti.c **** 
 260:./Drivers/STM32F1xx_HAL_Driver/Src/stm32f1xx_hal_exti.c ****   /* 1] Get core mode : interrupt */
 261:./Drivers/STM32F1xx_HAL_Driver/Src/stm32f1xx_hal_exti.c **** 
 262:./Drivers/STM32F1xx_HAL_Driver/Src/stm32f1xx_hal_exti.c ****   /* Check if selected line is enable */
 263:./Drivers/STM32F1xx_HAL_Driver/Src/stm32f1xx_hal_exti.c ****   if ((EXTI->IMR & maskline) != 0x00u)
 322              		.loc 1 263 12
 323 0036 2C4B     		ldr	r3, .L26
 324 0038 1A68     		ldr	r2, [r3]
 325              		.loc 1 263 18
 326 003a 3B69     		ldr	r3, [r7, #16]
 327 003c 1340     		ands	r3, r3, r2
 328              		.loc 1 263 6
 329 003e 002B     		cmp	r3, #0
 330 0040 03D0     		beq	.L20
 264:./Drivers/STM32F1xx_HAL_Driver/Src/stm32f1xx_hal_exti.c ****   {
 265:./Drivers/STM32F1xx_HAL_Driver/Src/stm32f1xx_hal_exti.c ****     pExtiConfig->Mode = EXTI_MODE_INTERRUPT;
 331              		.loc 1 265 23
 332 0042 3B68     		ldr	r3, [r7]
 333 0044 0122     		movs	r2, #1
 334 0046 5A60     		str	r2, [r3, #4]
 335 0048 02E0     		b	.L21
 336              	.L20:
 266:./Drivers/STM32F1xx_HAL_Driver/Src/stm32f1xx_hal_exti.c ****   }
 267:./Drivers/STM32F1xx_HAL_Driver/Src/stm32f1xx_hal_exti.c ****   else
 268:./Drivers/STM32F1xx_HAL_Driver/Src/stm32f1xx_hal_exti.c ****   {
 269:./Drivers/STM32F1xx_HAL_Driver/Src/stm32f1xx_hal_exti.c ****     pExtiConfig->Mode = EXTI_MODE_NONE;
 337              		.loc 1 269 23
 338 004a 3B68     		ldr	r3, [r7]
 339 004c 0022     		movs	r2, #0
 340 004e 5A60     		str	r2, [r3, #4]
 341              	.L21:
 270:./Drivers/STM32F1xx_HAL_Driver/Src/stm32f1xx_hal_exti.c ****   }
 271:./Drivers/STM32F1xx_HAL_Driver/Src/stm32f1xx_hal_exti.c **** 
 272:./Drivers/STM32F1xx_HAL_Driver/Src/stm32f1xx_hal_exti.c ****   /* Get event mode */
 273:./Drivers/STM32F1xx_HAL_Driver/Src/stm32f1xx_hal_exti.c ****   /* Check if selected line is enable */
 274:./Drivers/STM32F1xx_HAL_Driver/Src/stm32f1xx_hal_exti.c ****   if ((EXTI->EMR & maskline) != 0x00u)
 342              		.loc 1 274 12
 343 0050 254B     		ldr	r3, .L26
 344 0052 5A68     		ldr	r2, [r3, #4]
 345              		.loc 1 274 18
 346 0054 3B69     		ldr	r3, [r7, #16]
 347 0056 1340     		ands	r3, r3, r2
 348              		.loc 1 274 6
 349 0058 002B     		cmp	r3, #0
 350 005a 05D0     		beq	.L22
 275:./Drivers/STM32F1xx_HAL_Driver/Src/stm32f1xx_hal_exti.c ****   {
 276:./Drivers/STM32F1xx_HAL_Driver/Src/stm32f1xx_hal_exti.c ****     pExtiConfig->Mode |= EXTI_MODE_EVENT;
 351              		.loc 1 276 23
 352 005c 3B68     		ldr	r3, [r7]
 353 005e 5B68     		ldr	r3, [r3, #4]
 354 0060 43F00202 		orr	r2, r3, #2
ARM GAS  C:\Users\phucd\AppData\Local\Temp\ccTvEAiJ.s 			page 12


 355 0064 3B68     		ldr	r3, [r7]
 356 0066 5A60     		str	r2, [r3, #4]
 357              	.L22:
 277:./Drivers/STM32F1xx_HAL_Driver/Src/stm32f1xx_hal_exti.c ****   }
 278:./Drivers/STM32F1xx_HAL_Driver/Src/stm32f1xx_hal_exti.c **** 
 279:./Drivers/STM32F1xx_HAL_Driver/Src/stm32f1xx_hal_exti.c ****   /* Get default Trigger and GPIOSel configuration */
 280:./Drivers/STM32F1xx_HAL_Driver/Src/stm32f1xx_hal_exti.c ****   pExtiConfig->Trigger = EXTI_TRIGGER_NONE;
 358              		.loc 1 280 24
 359 0068 3B68     		ldr	r3, [r7]
 360 006a 0022     		movs	r2, #0
 361 006c 9A60     		str	r2, [r3, #8]
 281:./Drivers/STM32F1xx_HAL_Driver/Src/stm32f1xx_hal_exti.c ****   pExtiConfig->GPIOSel = 0x00u;
 362              		.loc 1 281 24
 363 006e 3B68     		ldr	r3, [r7]
 364 0070 0022     		movs	r2, #0
 365 0072 DA60     		str	r2, [r3, #12]
 282:./Drivers/STM32F1xx_HAL_Driver/Src/stm32f1xx_hal_exti.c **** 
 283:./Drivers/STM32F1xx_HAL_Driver/Src/stm32f1xx_hal_exti.c ****   /* 2] Get trigger for configurable lines : rising */
 284:./Drivers/STM32F1xx_HAL_Driver/Src/stm32f1xx_hal_exti.c ****   if ((pExtiConfig->Line & EXTI_CONFIG) != 0x00u)
 366              		.loc 1 284 19
 367 0074 3B68     		ldr	r3, [r7]
 368 0076 1B68     		ldr	r3, [r3]
 369              		.loc 1 284 26
 370 0078 03F00073 		and	r3, r3, #33554432
 371              		.loc 1 284 6
 372 007c 002B     		cmp	r3, #0
 373 007e 2DD0     		beq	.L23
 285:./Drivers/STM32F1xx_HAL_Driver/Src/stm32f1xx_hal_exti.c ****   {
 286:./Drivers/STM32F1xx_HAL_Driver/Src/stm32f1xx_hal_exti.c ****     /* Check if configuration of selected line is enable */
 287:./Drivers/STM32F1xx_HAL_Driver/Src/stm32f1xx_hal_exti.c ****     if ((EXTI->RTSR & maskline) != 0x00u)
 374              		.loc 1 287 14
 375 0080 194B     		ldr	r3, .L26
 376 0082 9A68     		ldr	r2, [r3, #8]
 377              		.loc 1 287 21
 378 0084 3B69     		ldr	r3, [r7, #16]
 379 0086 1340     		ands	r3, r3, r2
 380              		.loc 1 287 8
 381 0088 002B     		cmp	r3, #0
 382 008a 02D0     		beq	.L24
 288:./Drivers/STM32F1xx_HAL_Driver/Src/stm32f1xx_hal_exti.c ****     {
 289:./Drivers/STM32F1xx_HAL_Driver/Src/stm32f1xx_hal_exti.c ****       pExtiConfig->Trigger = EXTI_TRIGGER_RISING;
 383              		.loc 1 289 28
 384 008c 3B68     		ldr	r3, [r7]
 385 008e 0122     		movs	r2, #1
 386 0090 9A60     		str	r2, [r3, #8]
 387              	.L24:
 290:./Drivers/STM32F1xx_HAL_Driver/Src/stm32f1xx_hal_exti.c ****     }
 291:./Drivers/STM32F1xx_HAL_Driver/Src/stm32f1xx_hal_exti.c **** 
 292:./Drivers/STM32F1xx_HAL_Driver/Src/stm32f1xx_hal_exti.c ****     /* Get falling configuration */
 293:./Drivers/STM32F1xx_HAL_Driver/Src/stm32f1xx_hal_exti.c ****     /* Check if configuration of selected line is enable */
 294:./Drivers/STM32F1xx_HAL_Driver/Src/stm32f1xx_hal_exti.c ****     if ((EXTI->FTSR & maskline) != 0x00u)
 388              		.loc 1 294 14
 389 0092 154B     		ldr	r3, .L26
 390 0094 DA68     		ldr	r2, [r3, #12]
 391              		.loc 1 294 21
 392 0096 3B69     		ldr	r3, [r7, #16]
 393 0098 1340     		ands	r3, r3, r2
ARM GAS  C:\Users\phucd\AppData\Local\Temp\ccTvEAiJ.s 			page 13


 394              		.loc 1 294 8
 395 009a 002B     		cmp	r3, #0
 396 009c 05D0     		beq	.L25
 295:./Drivers/STM32F1xx_HAL_Driver/Src/stm32f1xx_hal_exti.c ****     {
 296:./Drivers/STM32F1xx_HAL_Driver/Src/stm32f1xx_hal_exti.c ****       pExtiConfig->Trigger |= EXTI_TRIGGER_FALLING;
 397              		.loc 1 296 28
 398 009e 3B68     		ldr	r3, [r7]
 399 00a0 9B68     		ldr	r3, [r3, #8]
 400 00a2 43F00202 		orr	r2, r3, #2
 401 00a6 3B68     		ldr	r3, [r7]
 402 00a8 9A60     		str	r2, [r3, #8]
 403              	.L25:
 297:./Drivers/STM32F1xx_HAL_Driver/Src/stm32f1xx_hal_exti.c ****     }
 298:./Drivers/STM32F1xx_HAL_Driver/Src/stm32f1xx_hal_exti.c **** 
 299:./Drivers/STM32F1xx_HAL_Driver/Src/stm32f1xx_hal_exti.c ****     /* Get Gpio port selection for gpio lines */
 300:./Drivers/STM32F1xx_HAL_Driver/Src/stm32f1xx_hal_exti.c ****     if ((pExtiConfig->Line & EXTI_GPIO) == EXTI_GPIO)
 404              		.loc 1 300 21
 405 00aa 3B68     		ldr	r3, [r7]
 406 00ac 1B68     		ldr	r3, [r3]
 407              		.loc 1 300 28
 408 00ae 03F0C063 		and	r3, r3, #100663296
 409              		.loc 1 300 8
 410 00b2 B3F1C06F 		cmp	r3, #100663296
 411 00b6 11D1     		bne	.L23
 301:./Drivers/STM32F1xx_HAL_Driver/Src/stm32f1xx_hal_exti.c ****     {
 302:./Drivers/STM32F1xx_HAL_Driver/Src/stm32f1xx_hal_exti.c ****       assert_param(IS_EXTI_GPIO_PIN(linepos));
 303:./Drivers/STM32F1xx_HAL_Driver/Src/stm32f1xx_hal_exti.c **** 
 304:./Drivers/STM32F1xx_HAL_Driver/Src/stm32f1xx_hal_exti.c ****       regval = AFIO->EXTICR[linepos >> 2u];
 412              		.loc 1 304 20
 413 00b8 0C4A     		ldr	r2, .L26+4
 414              		.loc 1 304 37
 415 00ba 7B69     		ldr	r3, [r7, #20]
 416 00bc 9B08     		lsrs	r3, r3, #2
 417              		.loc 1 304 14
 418 00be 0233     		adds	r3, r3, #2
 419 00c0 52F82330 		ldr	r3, [r2, r3, lsl #2]
 420 00c4 FB60     		str	r3, [r7, #12]
 305:./Drivers/STM32F1xx_HAL_Driver/Src/stm32f1xx_hal_exti.c ****       pExtiConfig->GPIOSel = ((regval << (AFIO_EXTICR1_EXTI1_Pos * (3uL - (linepos & 0x03u)))) >> 2
 421              		.loc 1 305 73
 422 00c6 7B69     		ldr	r3, [r7, #20]
 423 00c8 DB43     		mvns	r3, r3
 424 00ca 03F00303 		and	r3, r3, #3
 425              		.loc 1 305 66
 426 00ce 9B00     		lsls	r3, r3, #2
 427              		.loc 1 305 39
 428 00d0 FA68     		ldr	r2, [r7, #12]
 429 00d2 02FA03F3 		lsl	r3, r2, r3
 430              		.loc 1 305 96
 431 00d6 1A0E     		lsrs	r2, r3, #24
 432              		.loc 1 305 28
 433 00d8 3B68     		ldr	r3, [r7]
 434 00da DA60     		str	r2, [r3, #12]
 435              	.L23:
 306:./Drivers/STM32F1xx_HAL_Driver/Src/stm32f1xx_hal_exti.c ****     }
 307:./Drivers/STM32F1xx_HAL_Driver/Src/stm32f1xx_hal_exti.c ****   }
 308:./Drivers/STM32F1xx_HAL_Driver/Src/stm32f1xx_hal_exti.c **** 
 309:./Drivers/STM32F1xx_HAL_Driver/Src/stm32f1xx_hal_exti.c ****   return HAL_OK;
ARM GAS  C:\Users\phucd\AppData\Local\Temp\ccTvEAiJ.s 			page 14


 436              		.loc 1 309 10
 437 00dc 0023     		movs	r3, #0
 438              	.L19:
 310:./Drivers/STM32F1xx_HAL_Driver/Src/stm32f1xx_hal_exti.c **** }
 439              		.loc 1 310 1
 440 00de 1846     		mov	r0, r3
 441 00e0 1C37     		adds	r7, r7, #28
 442              		.cfi_def_cfa_offset 4
 443 00e2 BD46     		mov	sp, r7
 444              		.cfi_def_cfa_register 13
 445              		@ sp needed
 446 00e4 80BC     		pop	{r7}
 447              		.cfi_restore 7
 448              		.cfi_def_cfa_offset 0
 449 00e6 7047     		bx	lr
 450              	.L27:
 451              		.align	2
 452              	.L26:
 453 00e8 00040140 		.word	1073808384
 454 00ec 00000140 		.word	1073807360
 455              		.cfi_endproc
 456              	.LFE66:
 458              		.section	.text.HAL_EXTI_ClearConfigLine,"ax",%progbits
 459              		.align	1
 460              		.global	HAL_EXTI_ClearConfigLine
 461              		.syntax unified
 462              		.thumb
 463              		.thumb_func
 464              		.fpu softvfp
 466              	HAL_EXTI_ClearConfigLine:
 467              	.LFB67:
 311:./Drivers/STM32F1xx_HAL_Driver/Src/stm32f1xx_hal_exti.c **** 
 312:./Drivers/STM32F1xx_HAL_Driver/Src/stm32f1xx_hal_exti.c **** /**
 313:./Drivers/STM32F1xx_HAL_Driver/Src/stm32f1xx_hal_exti.c ****   * @brief  Clear whole configuration of a dedicated Exti line.
 314:./Drivers/STM32F1xx_HAL_Driver/Src/stm32f1xx_hal_exti.c ****   * @param  hexti Exti handle.
 315:./Drivers/STM32F1xx_HAL_Driver/Src/stm32f1xx_hal_exti.c ****   * @retval HAL Status.
 316:./Drivers/STM32F1xx_HAL_Driver/Src/stm32f1xx_hal_exti.c ****   */
 317:./Drivers/STM32F1xx_HAL_Driver/Src/stm32f1xx_hal_exti.c **** HAL_StatusTypeDef HAL_EXTI_ClearConfigLine(EXTI_HandleTypeDef *hexti)
 318:./Drivers/STM32F1xx_HAL_Driver/Src/stm32f1xx_hal_exti.c **** {
 468              		.loc 1 318 1
 469              		.cfi_startproc
 470              		@ args = 0, pretend = 0, frame = 24
 471              		@ frame_needed = 1, uses_anonymous_args = 0
 472              		@ link register save eliminated.
 473 0000 80B4     		push	{r7}
 474              		.cfi_def_cfa_offset 4
 475              		.cfi_offset 7, -4
 476 0002 87B0     		sub	sp, sp, #28
 477              		.cfi_def_cfa_offset 32
 478 0004 00AF     		add	r7, sp, #0
 479              		.cfi_def_cfa_register 7
 480 0006 7860     		str	r0, [r7, #4]
 319:./Drivers/STM32F1xx_HAL_Driver/Src/stm32f1xx_hal_exti.c ****   uint32_t regval;
 320:./Drivers/STM32F1xx_HAL_Driver/Src/stm32f1xx_hal_exti.c ****   uint32_t linepos;
 321:./Drivers/STM32F1xx_HAL_Driver/Src/stm32f1xx_hal_exti.c ****   uint32_t maskline;
 322:./Drivers/STM32F1xx_HAL_Driver/Src/stm32f1xx_hal_exti.c **** 
 323:./Drivers/STM32F1xx_HAL_Driver/Src/stm32f1xx_hal_exti.c ****   /* Check null pointer */
ARM GAS  C:\Users\phucd\AppData\Local\Temp\ccTvEAiJ.s 			page 15


 324:./Drivers/STM32F1xx_HAL_Driver/Src/stm32f1xx_hal_exti.c ****   if (hexti == NULL)
 481              		.loc 1 324 6
 482 0008 7B68     		ldr	r3, [r7, #4]
 483 000a 002B     		cmp	r3, #0
 484 000c 01D1     		bne	.L29
 325:./Drivers/STM32F1xx_HAL_Driver/Src/stm32f1xx_hal_exti.c ****   {
 326:./Drivers/STM32F1xx_HAL_Driver/Src/stm32f1xx_hal_exti.c ****     return HAL_ERROR;
 485              		.loc 1 326 12
 486 000e 0123     		movs	r3, #1
 487 0010 4CE0     		b	.L30
 488              	.L29:
 327:./Drivers/STM32F1xx_HAL_Driver/Src/stm32f1xx_hal_exti.c ****   }
 328:./Drivers/STM32F1xx_HAL_Driver/Src/stm32f1xx_hal_exti.c **** 
 329:./Drivers/STM32F1xx_HAL_Driver/Src/stm32f1xx_hal_exti.c ****   /* Check the parameter */
 330:./Drivers/STM32F1xx_HAL_Driver/Src/stm32f1xx_hal_exti.c ****   assert_param(IS_EXTI_LINE(hexti->Line));
 331:./Drivers/STM32F1xx_HAL_Driver/Src/stm32f1xx_hal_exti.c **** 
 332:./Drivers/STM32F1xx_HAL_Driver/Src/stm32f1xx_hal_exti.c ****   /* compute line mask */
 333:./Drivers/STM32F1xx_HAL_Driver/Src/stm32f1xx_hal_exti.c ****   linepos = (hexti->Line & EXTI_PIN_MASK);
 489              		.loc 1 333 19
 490 0012 7B68     		ldr	r3, [r7, #4]
 491 0014 1B68     		ldr	r3, [r3]
 492              		.loc 1 333 11
 493 0016 03F01F03 		and	r3, r3, #31
 494 001a 7B61     		str	r3, [r7, #20]
 334:./Drivers/STM32F1xx_HAL_Driver/Src/stm32f1xx_hal_exti.c ****   maskline = (1uL << linepos);
 495              		.loc 1 334 12
 496 001c 0122     		movs	r2, #1
 497 001e 7B69     		ldr	r3, [r7, #20]
 498 0020 02FA03F3 		lsl	r3, r2, r3
 499 0024 3B61     		str	r3, [r7, #16]
 335:./Drivers/STM32F1xx_HAL_Driver/Src/stm32f1xx_hal_exti.c **** 
 336:./Drivers/STM32F1xx_HAL_Driver/Src/stm32f1xx_hal_exti.c ****   /* 1] Clear interrupt mode */
 337:./Drivers/STM32F1xx_HAL_Driver/Src/stm32f1xx_hal_exti.c ****   EXTI->IMR = (EXTI->IMR & ~maskline);
 500              		.loc 1 337 20
 501 0026 244B     		ldr	r3, .L32
 502 0028 1A68     		ldr	r2, [r3]
 503              		.loc 1 337 28
 504 002a 3B69     		ldr	r3, [r7, #16]
 505 002c DB43     		mvns	r3, r3
 506              		.loc 1 337 7
 507 002e 2249     		ldr	r1, .L32
 508              		.loc 1 337 26
 509 0030 1340     		ands	r3, r3, r2
 510              		.loc 1 337 13
 511 0032 0B60     		str	r3, [r1]
 338:./Drivers/STM32F1xx_HAL_Driver/Src/stm32f1xx_hal_exti.c **** 
 339:./Drivers/STM32F1xx_HAL_Driver/Src/stm32f1xx_hal_exti.c ****   /* 2] Clear event mode */
 340:./Drivers/STM32F1xx_HAL_Driver/Src/stm32f1xx_hal_exti.c ****   EXTI->EMR = (EXTI->EMR & ~maskline);
 512              		.loc 1 340 20
 513 0034 204B     		ldr	r3, .L32
 514 0036 5A68     		ldr	r2, [r3, #4]
 515              		.loc 1 340 28
 516 0038 3B69     		ldr	r3, [r7, #16]
 517 003a DB43     		mvns	r3, r3
 518              		.loc 1 340 7
 519 003c 1E49     		ldr	r1, .L32
 520              		.loc 1 340 26
ARM GAS  C:\Users\phucd\AppData\Local\Temp\ccTvEAiJ.s 			page 16


 521 003e 1340     		ands	r3, r3, r2
 522              		.loc 1 340 13
 523 0040 4B60     		str	r3, [r1, #4]
 341:./Drivers/STM32F1xx_HAL_Driver/Src/stm32f1xx_hal_exti.c **** 
 342:./Drivers/STM32F1xx_HAL_Driver/Src/stm32f1xx_hal_exti.c ****   /* 3] Clear triggers in case of configurable lines */
 343:./Drivers/STM32F1xx_HAL_Driver/Src/stm32f1xx_hal_exti.c ****   if ((hexti->Line & EXTI_CONFIG) != 0x00u)
 524              		.loc 1 343 13
 525 0042 7B68     		ldr	r3, [r7, #4]
 526 0044 1B68     		ldr	r3, [r3]
 527              		.loc 1 343 20
 528 0046 03F00073 		and	r3, r3, #33554432
 529              		.loc 1 343 6
 530 004a 002B     		cmp	r3, #0
 531 004c 2DD0     		beq	.L31
 344:./Drivers/STM32F1xx_HAL_Driver/Src/stm32f1xx_hal_exti.c ****   {
 345:./Drivers/STM32F1xx_HAL_Driver/Src/stm32f1xx_hal_exti.c ****     EXTI->RTSR = (EXTI->RTSR & ~maskline);
 532              		.loc 1 345 23
 533 004e 1A4B     		ldr	r3, .L32
 534 0050 9A68     		ldr	r2, [r3, #8]
 535              		.loc 1 345 32
 536 0052 3B69     		ldr	r3, [r7, #16]
 537 0054 DB43     		mvns	r3, r3
 538              		.loc 1 345 9
 539 0056 1849     		ldr	r1, .L32
 540              		.loc 1 345 30
 541 0058 1340     		ands	r3, r3, r2
 542              		.loc 1 345 16
 543 005a 8B60     		str	r3, [r1, #8]
 346:./Drivers/STM32F1xx_HAL_Driver/Src/stm32f1xx_hal_exti.c ****     EXTI->FTSR = (EXTI->FTSR & ~maskline);
 544              		.loc 1 346 23
 545 005c 164B     		ldr	r3, .L32
 546 005e DA68     		ldr	r2, [r3, #12]
 547              		.loc 1 346 32
 548 0060 3B69     		ldr	r3, [r7, #16]
 549 0062 DB43     		mvns	r3, r3
 550              		.loc 1 346 9
 551 0064 1449     		ldr	r1, .L32
 552              		.loc 1 346 30
 553 0066 1340     		ands	r3, r3, r2
 554              		.loc 1 346 16
 555 0068 CB60     		str	r3, [r1, #12]
 347:./Drivers/STM32F1xx_HAL_Driver/Src/stm32f1xx_hal_exti.c **** 
 348:./Drivers/STM32F1xx_HAL_Driver/Src/stm32f1xx_hal_exti.c ****     /* Get Gpio port selection for gpio lines */
 349:./Drivers/STM32F1xx_HAL_Driver/Src/stm32f1xx_hal_exti.c ****     if ((hexti->Line & EXTI_GPIO) == EXTI_GPIO)
 556              		.loc 1 349 15
 557 006a 7B68     		ldr	r3, [r7, #4]
 558 006c 1B68     		ldr	r3, [r3]
 559              		.loc 1 349 22
 560 006e 03F0C063 		and	r3, r3, #100663296
 561              		.loc 1 349 8
 562 0072 B3F1C06F 		cmp	r3, #100663296
 563 0076 18D1     		bne	.L31
 350:./Drivers/STM32F1xx_HAL_Driver/Src/stm32f1xx_hal_exti.c ****     {
 351:./Drivers/STM32F1xx_HAL_Driver/Src/stm32f1xx_hal_exti.c ****       assert_param(IS_EXTI_GPIO_PIN(linepos));
 352:./Drivers/STM32F1xx_HAL_Driver/Src/stm32f1xx_hal_exti.c **** 
 353:./Drivers/STM32F1xx_HAL_Driver/Src/stm32f1xx_hal_exti.c ****       regval = AFIO->EXTICR[linepos >> 2u];
 564              		.loc 1 353 20
ARM GAS  C:\Users\phucd\AppData\Local\Temp\ccTvEAiJ.s 			page 17


 565 0078 104A     		ldr	r2, .L32+4
 566              		.loc 1 353 37
 567 007a 7B69     		ldr	r3, [r7, #20]
 568 007c 9B08     		lsrs	r3, r3, #2
 569              		.loc 1 353 14
 570 007e 0233     		adds	r3, r3, #2
 571 0080 52F82330 		ldr	r3, [r2, r3, lsl #2]
 572 0084 FB60     		str	r3, [r7, #12]
 354:./Drivers/STM32F1xx_HAL_Driver/Src/stm32f1xx_hal_exti.c ****       regval &= ~(AFIO_EXTICR1_EXTI0 << (AFIO_EXTICR1_EXTI1_Pos * (linepos & 0x03u)));
 573              		.loc 1 354 76
 574 0086 7B69     		ldr	r3, [r7, #20]
 575 0088 03F00303 		and	r3, r3, #3
 576              		.loc 1 354 65
 577 008c 9B00     		lsls	r3, r3, #2
 578              		.loc 1 354 38
 579 008e 0F22     		movs	r2, #15
 580 0090 02FA03F3 		lsl	r3, r2, r3
 581              		.loc 1 354 17
 582 0094 DB43     		mvns	r3, r3
 583              		.loc 1 354 14
 584 0096 FA68     		ldr	r2, [r7, #12]
 585 0098 1340     		ands	r3, r3, r2
 586 009a FB60     		str	r3, [r7, #12]
 355:./Drivers/STM32F1xx_HAL_Driver/Src/stm32f1xx_hal_exti.c ****       AFIO->EXTICR[linepos >> 2u] = regval;
 587              		.loc 1 355 11
 588 009c 0749     		ldr	r1, .L32+4
 589              		.loc 1 355 28
 590 009e 7B69     		ldr	r3, [r7, #20]
 591 00a0 9B08     		lsrs	r3, r3, #2
 592              		.loc 1 355 35
 593 00a2 0233     		adds	r3, r3, #2
 594 00a4 FA68     		ldr	r2, [r7, #12]
 595 00a6 41F82320 		str	r2, [r1, r3, lsl #2]
 596              	.L31:
 356:./Drivers/STM32F1xx_HAL_Driver/Src/stm32f1xx_hal_exti.c ****     }
 357:./Drivers/STM32F1xx_HAL_Driver/Src/stm32f1xx_hal_exti.c ****   }
 358:./Drivers/STM32F1xx_HAL_Driver/Src/stm32f1xx_hal_exti.c **** 
 359:./Drivers/STM32F1xx_HAL_Driver/Src/stm32f1xx_hal_exti.c ****   return HAL_OK;
 597              		.loc 1 359 10
 598 00aa 0023     		movs	r3, #0
 599              	.L30:
 360:./Drivers/STM32F1xx_HAL_Driver/Src/stm32f1xx_hal_exti.c **** }
 600              		.loc 1 360 1
 601 00ac 1846     		mov	r0, r3
 602 00ae 1C37     		adds	r7, r7, #28
 603              		.cfi_def_cfa_offset 4
 604 00b0 BD46     		mov	sp, r7
 605              		.cfi_def_cfa_register 13
 606              		@ sp needed
 607 00b2 80BC     		pop	{r7}
 608              		.cfi_restore 7
 609              		.cfi_def_cfa_offset 0
 610 00b4 7047     		bx	lr
 611              	.L33:
 612 00b6 00BF     		.align	2
 613              	.L32:
 614 00b8 00040140 		.word	1073808384
ARM GAS  C:\Users\phucd\AppData\Local\Temp\ccTvEAiJ.s 			page 18


 615 00bc 00000140 		.word	1073807360
 616              		.cfi_endproc
 617              	.LFE67:
 619              		.section	.text.HAL_EXTI_RegisterCallback,"ax",%progbits
 620              		.align	1
 621              		.global	HAL_EXTI_RegisterCallback
 622              		.syntax unified
 623              		.thumb
 624              		.thumb_func
 625              		.fpu softvfp
 627              	HAL_EXTI_RegisterCallback:
 628              	.LFB68:
 361:./Drivers/STM32F1xx_HAL_Driver/Src/stm32f1xx_hal_exti.c **** 
 362:./Drivers/STM32F1xx_HAL_Driver/Src/stm32f1xx_hal_exti.c **** /**
 363:./Drivers/STM32F1xx_HAL_Driver/Src/stm32f1xx_hal_exti.c ****   * @brief  Register callback for a dedicated Exti line.
 364:./Drivers/STM32F1xx_HAL_Driver/Src/stm32f1xx_hal_exti.c ****   * @param  hexti Exti handle.
 365:./Drivers/STM32F1xx_HAL_Driver/Src/stm32f1xx_hal_exti.c ****   * @param  CallbackID User callback identifier.
 366:./Drivers/STM32F1xx_HAL_Driver/Src/stm32f1xx_hal_exti.c ****   *         This parameter can be one of @arg @ref EXTI_CallbackIDTypeDef values.
 367:./Drivers/STM32F1xx_HAL_Driver/Src/stm32f1xx_hal_exti.c ****   * @param  pPendingCbfn function pointer to be stored as callback.
 368:./Drivers/STM32F1xx_HAL_Driver/Src/stm32f1xx_hal_exti.c ****   * @retval HAL Status.
 369:./Drivers/STM32F1xx_HAL_Driver/Src/stm32f1xx_hal_exti.c ****   */
 370:./Drivers/STM32F1xx_HAL_Driver/Src/stm32f1xx_hal_exti.c **** HAL_StatusTypeDef HAL_EXTI_RegisterCallback(EXTI_HandleTypeDef *hexti, EXTI_CallbackIDTypeDef Callb
 371:./Drivers/STM32F1xx_HAL_Driver/Src/stm32f1xx_hal_exti.c **** {
 629              		.loc 1 371 1
 630              		.cfi_startproc
 631              		@ args = 0, pretend = 0, frame = 24
 632              		@ frame_needed = 1, uses_anonymous_args = 0
 633              		@ link register save eliminated.
 634 0000 80B4     		push	{r7}
 635              		.cfi_def_cfa_offset 4
 636              		.cfi_offset 7, -4
 637 0002 87B0     		sub	sp, sp, #28
 638              		.cfi_def_cfa_offset 32
 639 0004 00AF     		add	r7, sp, #0
 640              		.cfi_def_cfa_register 7
 641 0006 F860     		str	r0, [r7, #12]
 642 0008 0B46     		mov	r3, r1
 643 000a 7A60     		str	r2, [r7, #4]
 644 000c FB72     		strb	r3, [r7, #11]
 372:./Drivers/STM32F1xx_HAL_Driver/Src/stm32f1xx_hal_exti.c ****   HAL_StatusTypeDef status = HAL_OK;
 645              		.loc 1 372 21
 646 000e 0023     		movs	r3, #0
 647 0010 FB75     		strb	r3, [r7, #23]
 373:./Drivers/STM32F1xx_HAL_Driver/Src/stm32f1xx_hal_exti.c **** 
 374:./Drivers/STM32F1xx_HAL_Driver/Src/stm32f1xx_hal_exti.c ****   switch (CallbackID)
 648              		.loc 1 374 3
 649 0012 FB7A     		ldrb	r3, [r7, #11]	@ zero_extendqisi2
 650 0014 002B     		cmp	r3, #0
 651 0016 03D1     		bne	.L35
 375:./Drivers/STM32F1xx_HAL_Driver/Src/stm32f1xx_hal_exti.c ****   {
 376:./Drivers/STM32F1xx_HAL_Driver/Src/stm32f1xx_hal_exti.c ****     case  HAL_EXTI_COMMON_CB_ID:
 377:./Drivers/STM32F1xx_HAL_Driver/Src/stm32f1xx_hal_exti.c ****       hexti->PendingCallback = pPendingCbfn;
 652              		.loc 1 377 30
 653 0018 FB68     		ldr	r3, [r7, #12]
 654 001a 7A68     		ldr	r2, [r7, #4]
 655 001c 5A60     		str	r2, [r3, #4]
 378:./Drivers/STM32F1xx_HAL_Driver/Src/stm32f1xx_hal_exti.c ****       break;
ARM GAS  C:\Users\phucd\AppData\Local\Temp\ccTvEAiJ.s 			page 19


 656              		.loc 1 378 7
 657 001e 02E0     		b	.L36
 658              	.L35:
 379:./Drivers/STM32F1xx_HAL_Driver/Src/stm32f1xx_hal_exti.c **** 
 380:./Drivers/STM32F1xx_HAL_Driver/Src/stm32f1xx_hal_exti.c ****     default:
 381:./Drivers/STM32F1xx_HAL_Driver/Src/stm32f1xx_hal_exti.c ****       status = HAL_ERROR;
 659              		.loc 1 381 14
 660 0020 0123     		movs	r3, #1
 661 0022 FB75     		strb	r3, [r7, #23]
 382:./Drivers/STM32F1xx_HAL_Driver/Src/stm32f1xx_hal_exti.c ****       break;
 662              		.loc 1 382 7
 663 0024 00BF     		nop
 664              	.L36:
 383:./Drivers/STM32F1xx_HAL_Driver/Src/stm32f1xx_hal_exti.c ****   }
 384:./Drivers/STM32F1xx_HAL_Driver/Src/stm32f1xx_hal_exti.c **** 
 385:./Drivers/STM32F1xx_HAL_Driver/Src/stm32f1xx_hal_exti.c ****   return status;
 665              		.loc 1 385 10
 666 0026 FB7D     		ldrb	r3, [r7, #23]	@ zero_extendqisi2
 386:./Drivers/STM32F1xx_HAL_Driver/Src/stm32f1xx_hal_exti.c **** }
 667              		.loc 1 386 1
 668 0028 1846     		mov	r0, r3
 669 002a 1C37     		adds	r7, r7, #28
 670              		.cfi_def_cfa_offset 4
 671 002c BD46     		mov	sp, r7
 672              		.cfi_def_cfa_register 13
 673              		@ sp needed
 674 002e 80BC     		pop	{r7}
 675              		.cfi_restore 7
 676              		.cfi_def_cfa_offset 0
 677 0030 7047     		bx	lr
 678              		.cfi_endproc
 679              	.LFE68:
 681              		.section	.text.HAL_EXTI_GetHandle,"ax",%progbits
 682              		.align	1
 683              		.global	HAL_EXTI_GetHandle
 684              		.syntax unified
 685              		.thumb
 686              		.thumb_func
 687              		.fpu softvfp
 689              	HAL_EXTI_GetHandle:
 690              	.LFB69:
 387:./Drivers/STM32F1xx_HAL_Driver/Src/stm32f1xx_hal_exti.c **** 
 388:./Drivers/STM32F1xx_HAL_Driver/Src/stm32f1xx_hal_exti.c **** /**
 389:./Drivers/STM32F1xx_HAL_Driver/Src/stm32f1xx_hal_exti.c ****   * @brief  Store line number as handle private field.
 390:./Drivers/STM32F1xx_HAL_Driver/Src/stm32f1xx_hal_exti.c ****   * @param  hexti Exti handle.
 391:./Drivers/STM32F1xx_HAL_Driver/Src/stm32f1xx_hal_exti.c ****   * @param  ExtiLine Exti line number.
 392:./Drivers/STM32F1xx_HAL_Driver/Src/stm32f1xx_hal_exti.c ****   *         This parameter can be from 0 to @ref EXTI_LINE_NB.
 393:./Drivers/STM32F1xx_HAL_Driver/Src/stm32f1xx_hal_exti.c ****   * @retval HAL Status.
 394:./Drivers/STM32F1xx_HAL_Driver/Src/stm32f1xx_hal_exti.c ****   */
 395:./Drivers/STM32F1xx_HAL_Driver/Src/stm32f1xx_hal_exti.c **** HAL_StatusTypeDef HAL_EXTI_GetHandle(EXTI_HandleTypeDef *hexti, uint32_t ExtiLine)
 396:./Drivers/STM32F1xx_HAL_Driver/Src/stm32f1xx_hal_exti.c **** {
 691              		.loc 1 396 1
 692              		.cfi_startproc
 693              		@ args = 0, pretend = 0, frame = 8
 694              		@ frame_needed = 1, uses_anonymous_args = 0
 695              		@ link register save eliminated.
 696 0000 80B4     		push	{r7}
ARM GAS  C:\Users\phucd\AppData\Local\Temp\ccTvEAiJ.s 			page 20


 697              		.cfi_def_cfa_offset 4
 698              		.cfi_offset 7, -4
 699 0002 83B0     		sub	sp, sp, #12
 700              		.cfi_def_cfa_offset 16
 701 0004 00AF     		add	r7, sp, #0
 702              		.cfi_def_cfa_register 7
 703 0006 7860     		str	r0, [r7, #4]
 704 0008 3960     		str	r1, [r7]
 397:./Drivers/STM32F1xx_HAL_Driver/Src/stm32f1xx_hal_exti.c ****   /* Check the parameters */
 398:./Drivers/STM32F1xx_HAL_Driver/Src/stm32f1xx_hal_exti.c ****   assert_param(IS_EXTI_LINE(ExtiLine));
 399:./Drivers/STM32F1xx_HAL_Driver/Src/stm32f1xx_hal_exti.c **** 
 400:./Drivers/STM32F1xx_HAL_Driver/Src/stm32f1xx_hal_exti.c ****   /* Check null pointer */
 401:./Drivers/STM32F1xx_HAL_Driver/Src/stm32f1xx_hal_exti.c ****   if (hexti == NULL)
 705              		.loc 1 401 6
 706 000a 7B68     		ldr	r3, [r7, #4]
 707 000c 002B     		cmp	r3, #0
 708 000e 01D1     		bne	.L39
 402:./Drivers/STM32F1xx_HAL_Driver/Src/stm32f1xx_hal_exti.c ****   {
 403:./Drivers/STM32F1xx_HAL_Driver/Src/stm32f1xx_hal_exti.c ****     return HAL_ERROR;
 709              		.loc 1 403 12
 710 0010 0123     		movs	r3, #1
 711 0012 03E0     		b	.L40
 712              	.L39:
 404:./Drivers/STM32F1xx_HAL_Driver/Src/stm32f1xx_hal_exti.c ****   }
 405:./Drivers/STM32F1xx_HAL_Driver/Src/stm32f1xx_hal_exti.c ****   else
 406:./Drivers/STM32F1xx_HAL_Driver/Src/stm32f1xx_hal_exti.c ****   {
 407:./Drivers/STM32F1xx_HAL_Driver/Src/stm32f1xx_hal_exti.c ****     /* Store line number as handle private field */
 408:./Drivers/STM32F1xx_HAL_Driver/Src/stm32f1xx_hal_exti.c ****     hexti->Line = ExtiLine;
 713              		.loc 1 408 17
 714 0014 7B68     		ldr	r3, [r7, #4]
 715 0016 3A68     		ldr	r2, [r7]
 716 0018 1A60     		str	r2, [r3]
 409:./Drivers/STM32F1xx_HAL_Driver/Src/stm32f1xx_hal_exti.c **** 
 410:./Drivers/STM32F1xx_HAL_Driver/Src/stm32f1xx_hal_exti.c ****     return HAL_OK;
 717              		.loc 1 410 12
 718 001a 0023     		movs	r3, #0
 719              	.L40:
 411:./Drivers/STM32F1xx_HAL_Driver/Src/stm32f1xx_hal_exti.c ****   }
 412:./Drivers/STM32F1xx_HAL_Driver/Src/stm32f1xx_hal_exti.c **** }
 720              		.loc 1 412 1
 721 001c 1846     		mov	r0, r3
 722 001e 0C37     		adds	r7, r7, #12
 723              		.cfi_def_cfa_offset 4
 724 0020 BD46     		mov	sp, r7
 725              		.cfi_def_cfa_register 13
 726              		@ sp needed
 727 0022 80BC     		pop	{r7}
 728              		.cfi_restore 7
 729              		.cfi_def_cfa_offset 0
 730 0024 7047     		bx	lr
 731              		.cfi_endproc
 732              	.LFE69:
 734              		.section	.text.HAL_EXTI_IRQHandler,"ax",%progbits
 735              		.align	1
 736              		.global	HAL_EXTI_IRQHandler
 737              		.syntax unified
 738              		.thumb
ARM GAS  C:\Users\phucd\AppData\Local\Temp\ccTvEAiJ.s 			page 21


 739              		.thumb_func
 740              		.fpu softvfp
 742              	HAL_EXTI_IRQHandler:
 743              	.LFB70:
 413:./Drivers/STM32F1xx_HAL_Driver/Src/stm32f1xx_hal_exti.c **** 
 414:./Drivers/STM32F1xx_HAL_Driver/Src/stm32f1xx_hal_exti.c **** /**
 415:./Drivers/STM32F1xx_HAL_Driver/Src/stm32f1xx_hal_exti.c ****   * @}
 416:./Drivers/STM32F1xx_HAL_Driver/Src/stm32f1xx_hal_exti.c ****   */
 417:./Drivers/STM32F1xx_HAL_Driver/Src/stm32f1xx_hal_exti.c **** 
 418:./Drivers/STM32F1xx_HAL_Driver/Src/stm32f1xx_hal_exti.c **** /** @addtogroup EXTI_Exported_Functions_Group2
 419:./Drivers/STM32F1xx_HAL_Driver/Src/stm32f1xx_hal_exti.c ****   *  @brief EXTI IO functions.
 420:./Drivers/STM32F1xx_HAL_Driver/Src/stm32f1xx_hal_exti.c ****   *
 421:./Drivers/STM32F1xx_HAL_Driver/Src/stm32f1xx_hal_exti.c **** @verbatim
 422:./Drivers/STM32F1xx_HAL_Driver/Src/stm32f1xx_hal_exti.c ****  ===============================================================================
 423:./Drivers/STM32F1xx_HAL_Driver/Src/stm32f1xx_hal_exti.c ****                        ##### IO operation functions #####
 424:./Drivers/STM32F1xx_HAL_Driver/Src/stm32f1xx_hal_exti.c ****  ===============================================================================
 425:./Drivers/STM32F1xx_HAL_Driver/Src/stm32f1xx_hal_exti.c **** 
 426:./Drivers/STM32F1xx_HAL_Driver/Src/stm32f1xx_hal_exti.c **** @endverbatim
 427:./Drivers/STM32F1xx_HAL_Driver/Src/stm32f1xx_hal_exti.c ****   * @{
 428:./Drivers/STM32F1xx_HAL_Driver/Src/stm32f1xx_hal_exti.c ****   */
 429:./Drivers/STM32F1xx_HAL_Driver/Src/stm32f1xx_hal_exti.c **** 
 430:./Drivers/STM32F1xx_HAL_Driver/Src/stm32f1xx_hal_exti.c **** /**
 431:./Drivers/STM32F1xx_HAL_Driver/Src/stm32f1xx_hal_exti.c ****   * @brief  Handle EXTI interrupt request.
 432:./Drivers/STM32F1xx_HAL_Driver/Src/stm32f1xx_hal_exti.c ****   * @param  hexti Exti handle.
 433:./Drivers/STM32F1xx_HAL_Driver/Src/stm32f1xx_hal_exti.c ****   * @retval none.
 434:./Drivers/STM32F1xx_HAL_Driver/Src/stm32f1xx_hal_exti.c ****   */
 435:./Drivers/STM32F1xx_HAL_Driver/Src/stm32f1xx_hal_exti.c **** void HAL_EXTI_IRQHandler(EXTI_HandleTypeDef *hexti)
 436:./Drivers/STM32F1xx_HAL_Driver/Src/stm32f1xx_hal_exti.c **** {
 744              		.loc 1 436 1
 745              		.cfi_startproc
 746              		@ args = 0, pretend = 0, frame = 16
 747              		@ frame_needed = 1, uses_anonymous_args = 0
 748 0000 80B5     		push	{r7, lr}
 749              		.cfi_def_cfa_offset 8
 750              		.cfi_offset 7, -8
 751              		.cfi_offset 14, -4
 752 0002 84B0     		sub	sp, sp, #16
 753              		.cfi_def_cfa_offset 24
 754 0004 00AF     		add	r7, sp, #0
 755              		.cfi_def_cfa_register 7
 756 0006 7860     		str	r0, [r7, #4]
 437:./Drivers/STM32F1xx_HAL_Driver/Src/stm32f1xx_hal_exti.c ****   uint32_t regval;
 438:./Drivers/STM32F1xx_HAL_Driver/Src/stm32f1xx_hal_exti.c ****   uint32_t maskline;
 439:./Drivers/STM32F1xx_HAL_Driver/Src/stm32f1xx_hal_exti.c **** 
 440:./Drivers/STM32F1xx_HAL_Driver/Src/stm32f1xx_hal_exti.c ****   /* Compute line mask */
 441:./Drivers/STM32F1xx_HAL_Driver/Src/stm32f1xx_hal_exti.c ****   maskline = (1uL << (hexti->Line & EXTI_PIN_MASK));
 757              		.loc 1 441 28
 758 0008 7B68     		ldr	r3, [r7, #4]
 759 000a 1B68     		ldr	r3, [r3]
 760              		.loc 1 441 35
 761 000c 03F01F03 		and	r3, r3, #31
 762              		.loc 1 441 12
 763 0010 0122     		movs	r2, #1
 764 0012 02FA03F3 		lsl	r3, r2, r3
 765 0016 FB60     		str	r3, [r7, #12]
 442:./Drivers/STM32F1xx_HAL_Driver/Src/stm32f1xx_hal_exti.c **** 
 443:./Drivers/STM32F1xx_HAL_Driver/Src/stm32f1xx_hal_exti.c ****   /* Get pending bit  */
ARM GAS  C:\Users\phucd\AppData\Local\Temp\ccTvEAiJ.s 			page 22


 444:./Drivers/STM32F1xx_HAL_Driver/Src/stm32f1xx_hal_exti.c ****   regval = (EXTI->PR & maskline);
 766              		.loc 1 444 17
 767 0018 0A4B     		ldr	r3, .L44
 768 001a 5B69     		ldr	r3, [r3, #20]
 769              		.loc 1 444 10
 770 001c FA68     		ldr	r2, [r7, #12]
 771 001e 1340     		ands	r3, r3, r2
 772 0020 BB60     		str	r3, [r7, #8]
 445:./Drivers/STM32F1xx_HAL_Driver/Src/stm32f1xx_hal_exti.c ****   if (regval != 0x00u)
 773              		.loc 1 445 6
 774 0022 BB68     		ldr	r3, [r7, #8]
 775 0024 002B     		cmp	r3, #0
 776 0026 09D0     		beq	.L43
 446:./Drivers/STM32F1xx_HAL_Driver/Src/stm32f1xx_hal_exti.c ****   {
 447:./Drivers/STM32F1xx_HAL_Driver/Src/stm32f1xx_hal_exti.c ****     /* Clear pending bit */
 448:./Drivers/STM32F1xx_HAL_Driver/Src/stm32f1xx_hal_exti.c ****     EXTI->PR = maskline;
 777              		.loc 1 448 9
 778 0028 064A     		ldr	r2, .L44
 779              		.loc 1 448 14
 780 002a FB68     		ldr	r3, [r7, #12]
 781 002c 5361     		str	r3, [r2, #20]
 449:./Drivers/STM32F1xx_HAL_Driver/Src/stm32f1xx_hal_exti.c **** 
 450:./Drivers/STM32F1xx_HAL_Driver/Src/stm32f1xx_hal_exti.c ****     /* Call callback */
 451:./Drivers/STM32F1xx_HAL_Driver/Src/stm32f1xx_hal_exti.c ****     if (hexti->PendingCallback != NULL)
 782              		.loc 1 451 14
 783 002e 7B68     		ldr	r3, [r7, #4]
 784 0030 5B68     		ldr	r3, [r3, #4]
 785              		.loc 1 451 8
 786 0032 002B     		cmp	r3, #0
 787 0034 02D0     		beq	.L43
 452:./Drivers/STM32F1xx_HAL_Driver/Src/stm32f1xx_hal_exti.c ****     {
 453:./Drivers/STM32F1xx_HAL_Driver/Src/stm32f1xx_hal_exti.c ****       hexti->PendingCallback();
 788              		.loc 1 453 12
 789 0036 7B68     		ldr	r3, [r7, #4]
 790 0038 5B68     		ldr	r3, [r3, #4]
 791              		.loc 1 453 7
 792 003a 9847     		blx	r3
 793              	.LVL0:
 794              	.L43:
 454:./Drivers/STM32F1xx_HAL_Driver/Src/stm32f1xx_hal_exti.c ****     }
 455:./Drivers/STM32F1xx_HAL_Driver/Src/stm32f1xx_hal_exti.c ****   }
 456:./Drivers/STM32F1xx_HAL_Driver/Src/stm32f1xx_hal_exti.c **** }
 795              		.loc 1 456 1
 796 003c 00BF     		nop
 797 003e 1037     		adds	r7, r7, #16
 798              		.cfi_def_cfa_offset 8
 799 0040 BD46     		mov	sp, r7
 800              		.cfi_def_cfa_register 13
 801              		@ sp needed
 802 0042 80BD     		pop	{r7, pc}
 803              	.L45:
 804              		.align	2
 805              	.L44:
 806 0044 00040140 		.word	1073808384
 807              		.cfi_endproc
 808              	.LFE70:
 810              		.section	.text.HAL_EXTI_GetPending,"ax",%progbits
ARM GAS  C:\Users\phucd\AppData\Local\Temp\ccTvEAiJ.s 			page 23


 811              		.align	1
 812              		.global	HAL_EXTI_GetPending
 813              		.syntax unified
 814              		.thumb
 815              		.thumb_func
 816              		.fpu softvfp
 818              	HAL_EXTI_GetPending:
 819              	.LFB71:
 457:./Drivers/STM32F1xx_HAL_Driver/Src/stm32f1xx_hal_exti.c **** 
 458:./Drivers/STM32F1xx_HAL_Driver/Src/stm32f1xx_hal_exti.c **** /**
 459:./Drivers/STM32F1xx_HAL_Driver/Src/stm32f1xx_hal_exti.c ****   * @brief  Get interrupt pending bit of a dedicated line.
 460:./Drivers/STM32F1xx_HAL_Driver/Src/stm32f1xx_hal_exti.c ****   * @param  hexti Exti handle.
 461:./Drivers/STM32F1xx_HAL_Driver/Src/stm32f1xx_hal_exti.c ****   * @param  Edge Specify which pending edge as to be checked.
 462:./Drivers/STM32F1xx_HAL_Driver/Src/stm32f1xx_hal_exti.c ****   *         This parameter can be one of the following values:
 463:./Drivers/STM32F1xx_HAL_Driver/Src/stm32f1xx_hal_exti.c ****   *           @arg @ref EXTI_TRIGGER_RISING_FALLING
 464:./Drivers/STM32F1xx_HAL_Driver/Src/stm32f1xx_hal_exti.c ****   *         This parameter is kept for compatibility with other series.
 465:./Drivers/STM32F1xx_HAL_Driver/Src/stm32f1xx_hal_exti.c ****   * @retval 1 if interrupt is pending else 0.
 466:./Drivers/STM32F1xx_HAL_Driver/Src/stm32f1xx_hal_exti.c ****   */
 467:./Drivers/STM32F1xx_HAL_Driver/Src/stm32f1xx_hal_exti.c **** uint32_t HAL_EXTI_GetPending(EXTI_HandleTypeDef *hexti, uint32_t Edge)
 468:./Drivers/STM32F1xx_HAL_Driver/Src/stm32f1xx_hal_exti.c **** {
 820              		.loc 1 468 1
 821              		.cfi_startproc
 822              		@ args = 0, pretend = 0, frame = 24
 823              		@ frame_needed = 1, uses_anonymous_args = 0
 824              		@ link register save eliminated.
 825 0000 80B4     		push	{r7}
 826              		.cfi_def_cfa_offset 4
 827              		.cfi_offset 7, -4
 828 0002 87B0     		sub	sp, sp, #28
 829              		.cfi_def_cfa_offset 32
 830 0004 00AF     		add	r7, sp, #0
 831              		.cfi_def_cfa_register 7
 832 0006 7860     		str	r0, [r7, #4]
 833 0008 3960     		str	r1, [r7]
 469:./Drivers/STM32F1xx_HAL_Driver/Src/stm32f1xx_hal_exti.c ****   uint32_t regval;
 470:./Drivers/STM32F1xx_HAL_Driver/Src/stm32f1xx_hal_exti.c ****   uint32_t maskline;
 471:./Drivers/STM32F1xx_HAL_Driver/Src/stm32f1xx_hal_exti.c ****   uint32_t linepos;
 472:./Drivers/STM32F1xx_HAL_Driver/Src/stm32f1xx_hal_exti.c **** 
 473:./Drivers/STM32F1xx_HAL_Driver/Src/stm32f1xx_hal_exti.c ****   /* Check parameters */
 474:./Drivers/STM32F1xx_HAL_Driver/Src/stm32f1xx_hal_exti.c ****   assert_param(IS_EXTI_LINE(hexti->Line));
 475:./Drivers/STM32F1xx_HAL_Driver/Src/stm32f1xx_hal_exti.c ****   assert_param(IS_EXTI_CONFIG_LINE(hexti->Line));
 476:./Drivers/STM32F1xx_HAL_Driver/Src/stm32f1xx_hal_exti.c ****   assert_param(IS_EXTI_PENDING_EDGE(Edge));
 477:./Drivers/STM32F1xx_HAL_Driver/Src/stm32f1xx_hal_exti.c **** 
 478:./Drivers/STM32F1xx_HAL_Driver/Src/stm32f1xx_hal_exti.c ****   /* Prevent unused argument compilation warning */
 479:./Drivers/STM32F1xx_HAL_Driver/Src/stm32f1xx_hal_exti.c ****   UNUSED(Edge);
 480:./Drivers/STM32F1xx_HAL_Driver/Src/stm32f1xx_hal_exti.c **** 
 481:./Drivers/STM32F1xx_HAL_Driver/Src/stm32f1xx_hal_exti.c ****   /* Compute line mask */
 482:./Drivers/STM32F1xx_HAL_Driver/Src/stm32f1xx_hal_exti.c ****   linepos = (hexti->Line & EXTI_PIN_MASK);
 834              		.loc 1 482 19
 835 000a 7B68     		ldr	r3, [r7, #4]
 836 000c 1B68     		ldr	r3, [r3]
 837              		.loc 1 482 11
 838 000e 03F01F03 		and	r3, r3, #31
 839 0012 7B61     		str	r3, [r7, #20]
 483:./Drivers/STM32F1xx_HAL_Driver/Src/stm32f1xx_hal_exti.c ****   maskline = (1uL << linepos);
 840              		.loc 1 483 12
 841 0014 0122     		movs	r2, #1
ARM GAS  C:\Users\phucd\AppData\Local\Temp\ccTvEAiJ.s 			page 24


 842 0016 7B69     		ldr	r3, [r7, #20]
 843 0018 02FA03F3 		lsl	r3, r2, r3
 844 001c 3B61     		str	r3, [r7, #16]
 484:./Drivers/STM32F1xx_HAL_Driver/Src/stm32f1xx_hal_exti.c **** 
 485:./Drivers/STM32F1xx_HAL_Driver/Src/stm32f1xx_hal_exti.c ****   /* return 1 if bit is set else 0 */
 486:./Drivers/STM32F1xx_HAL_Driver/Src/stm32f1xx_hal_exti.c ****   regval = ((EXTI->PR & maskline) >> linepos);
 845              		.loc 1 486 18
 846 001e 074B     		ldr	r3, .L48
 847 0020 5A69     		ldr	r2, [r3, #20]
 848              		.loc 1 486 23
 849 0022 3B69     		ldr	r3, [r7, #16]
 850 0024 1A40     		ands	r2, r2, r3
 851              		.loc 1 486 10
 852 0026 7B69     		ldr	r3, [r7, #20]
 853 0028 22FA03F3 		lsr	r3, r2, r3
 854 002c FB60     		str	r3, [r7, #12]
 487:./Drivers/STM32F1xx_HAL_Driver/Src/stm32f1xx_hal_exti.c ****   return regval;
 855              		.loc 1 487 10
 856 002e FB68     		ldr	r3, [r7, #12]
 488:./Drivers/STM32F1xx_HAL_Driver/Src/stm32f1xx_hal_exti.c **** }
 857              		.loc 1 488 1
 858 0030 1846     		mov	r0, r3
 859 0032 1C37     		adds	r7, r7, #28
 860              		.cfi_def_cfa_offset 4
 861 0034 BD46     		mov	sp, r7
 862              		.cfi_def_cfa_register 13
 863              		@ sp needed
 864 0036 80BC     		pop	{r7}
 865              		.cfi_restore 7
 866              		.cfi_def_cfa_offset 0
 867 0038 7047     		bx	lr
 868              	.L49:
 869 003a 00BF     		.align	2
 870              	.L48:
 871 003c 00040140 		.word	1073808384
 872              		.cfi_endproc
 873              	.LFE71:
 875              		.section	.text.HAL_EXTI_ClearPending,"ax",%progbits
 876              		.align	1
 877              		.global	HAL_EXTI_ClearPending
 878              		.syntax unified
 879              		.thumb
 880              		.thumb_func
 881              		.fpu softvfp
 883              	HAL_EXTI_ClearPending:
 884              	.LFB72:
 489:./Drivers/STM32F1xx_HAL_Driver/Src/stm32f1xx_hal_exti.c **** 
 490:./Drivers/STM32F1xx_HAL_Driver/Src/stm32f1xx_hal_exti.c **** /**
 491:./Drivers/STM32F1xx_HAL_Driver/Src/stm32f1xx_hal_exti.c ****   * @brief  Clear interrupt pending bit of a dedicated line.
 492:./Drivers/STM32F1xx_HAL_Driver/Src/stm32f1xx_hal_exti.c ****   * @param  hexti Exti handle.
 493:./Drivers/STM32F1xx_HAL_Driver/Src/stm32f1xx_hal_exti.c ****   * @param  Edge Specify which pending edge as to be clear.
 494:./Drivers/STM32F1xx_HAL_Driver/Src/stm32f1xx_hal_exti.c ****   *         This parameter can be one of the following values:
 495:./Drivers/STM32F1xx_HAL_Driver/Src/stm32f1xx_hal_exti.c ****   *           @arg @ref EXTI_TRIGGER_RISING_FALLING
 496:./Drivers/STM32F1xx_HAL_Driver/Src/stm32f1xx_hal_exti.c ****   *         This parameter is kept for compatibility with other series.
 497:./Drivers/STM32F1xx_HAL_Driver/Src/stm32f1xx_hal_exti.c ****   * @retval None.
 498:./Drivers/STM32F1xx_HAL_Driver/Src/stm32f1xx_hal_exti.c ****   */
 499:./Drivers/STM32F1xx_HAL_Driver/Src/stm32f1xx_hal_exti.c **** void HAL_EXTI_ClearPending(EXTI_HandleTypeDef *hexti, uint32_t Edge)
ARM GAS  C:\Users\phucd\AppData\Local\Temp\ccTvEAiJ.s 			page 25


 500:./Drivers/STM32F1xx_HAL_Driver/Src/stm32f1xx_hal_exti.c **** {
 885              		.loc 1 500 1
 886              		.cfi_startproc
 887              		@ args = 0, pretend = 0, frame = 16
 888              		@ frame_needed = 1, uses_anonymous_args = 0
 889              		@ link register save eliminated.
 890 0000 80B4     		push	{r7}
 891              		.cfi_def_cfa_offset 4
 892              		.cfi_offset 7, -4
 893 0002 85B0     		sub	sp, sp, #20
 894              		.cfi_def_cfa_offset 24
 895 0004 00AF     		add	r7, sp, #0
 896              		.cfi_def_cfa_register 7
 897 0006 7860     		str	r0, [r7, #4]
 898 0008 3960     		str	r1, [r7]
 501:./Drivers/STM32F1xx_HAL_Driver/Src/stm32f1xx_hal_exti.c ****   uint32_t maskline;
 502:./Drivers/STM32F1xx_HAL_Driver/Src/stm32f1xx_hal_exti.c **** 
 503:./Drivers/STM32F1xx_HAL_Driver/Src/stm32f1xx_hal_exti.c ****   /* Check parameters */
 504:./Drivers/STM32F1xx_HAL_Driver/Src/stm32f1xx_hal_exti.c ****   assert_param(IS_EXTI_LINE(hexti->Line));
 505:./Drivers/STM32F1xx_HAL_Driver/Src/stm32f1xx_hal_exti.c ****   assert_param(IS_EXTI_CONFIG_LINE(hexti->Line));
 506:./Drivers/STM32F1xx_HAL_Driver/Src/stm32f1xx_hal_exti.c ****   assert_param(IS_EXTI_PENDING_EDGE(Edge));
 507:./Drivers/STM32F1xx_HAL_Driver/Src/stm32f1xx_hal_exti.c **** 
 508:./Drivers/STM32F1xx_HAL_Driver/Src/stm32f1xx_hal_exti.c ****   /* Prevent unused argument compilation warning */
 509:./Drivers/STM32F1xx_HAL_Driver/Src/stm32f1xx_hal_exti.c ****   UNUSED(Edge);
 510:./Drivers/STM32F1xx_HAL_Driver/Src/stm32f1xx_hal_exti.c **** 
 511:./Drivers/STM32F1xx_HAL_Driver/Src/stm32f1xx_hal_exti.c ****   /* Compute line mask */
 512:./Drivers/STM32F1xx_HAL_Driver/Src/stm32f1xx_hal_exti.c ****   maskline = (1uL << (hexti->Line & EXTI_PIN_MASK));
 899              		.loc 1 512 28
 900 000a 7B68     		ldr	r3, [r7, #4]
 901 000c 1B68     		ldr	r3, [r3]
 902              		.loc 1 512 35
 903 000e 03F01F03 		and	r3, r3, #31
 904              		.loc 1 512 12
 905 0012 0122     		movs	r2, #1
 906 0014 02FA03F3 		lsl	r3, r2, r3
 907 0018 FB60     		str	r3, [r7, #12]
 513:./Drivers/STM32F1xx_HAL_Driver/Src/stm32f1xx_hal_exti.c **** 
 514:./Drivers/STM32F1xx_HAL_Driver/Src/stm32f1xx_hal_exti.c ****   /* Clear Pending bit */
 515:./Drivers/STM32F1xx_HAL_Driver/Src/stm32f1xx_hal_exti.c ****   EXTI->PR =  maskline;
 908              		.loc 1 515 7
 909 001a 044A     		ldr	r2, .L51
 910              		.loc 1 515 12
 911 001c FB68     		ldr	r3, [r7, #12]
 912 001e 5361     		str	r3, [r2, #20]
 516:./Drivers/STM32F1xx_HAL_Driver/Src/stm32f1xx_hal_exti.c **** }
 913              		.loc 1 516 1
 914 0020 00BF     		nop
 915 0022 1437     		adds	r7, r7, #20
 916              		.cfi_def_cfa_offset 4
 917 0024 BD46     		mov	sp, r7
 918              		.cfi_def_cfa_register 13
 919              		@ sp needed
 920 0026 80BC     		pop	{r7}
 921              		.cfi_restore 7
 922              		.cfi_def_cfa_offset 0
 923 0028 7047     		bx	lr
 924              	.L52:
ARM GAS  C:\Users\phucd\AppData\Local\Temp\ccTvEAiJ.s 			page 26


 925 002a 00BF     		.align	2
 926              	.L51:
 927 002c 00040140 		.word	1073808384
 928              		.cfi_endproc
 929              	.LFE72:
 931              		.section	.text.HAL_EXTI_GenerateSWI,"ax",%progbits
 932              		.align	1
 933              		.global	HAL_EXTI_GenerateSWI
 934              		.syntax unified
 935              		.thumb
 936              		.thumb_func
 937              		.fpu softvfp
 939              	HAL_EXTI_GenerateSWI:
 940              	.LFB73:
 517:./Drivers/STM32F1xx_HAL_Driver/Src/stm32f1xx_hal_exti.c **** 
 518:./Drivers/STM32F1xx_HAL_Driver/Src/stm32f1xx_hal_exti.c **** /**
 519:./Drivers/STM32F1xx_HAL_Driver/Src/stm32f1xx_hal_exti.c ****   * @brief  Generate a software interrupt for a dedicated line.
 520:./Drivers/STM32F1xx_HAL_Driver/Src/stm32f1xx_hal_exti.c ****   * @param  hexti Exti handle.
 521:./Drivers/STM32F1xx_HAL_Driver/Src/stm32f1xx_hal_exti.c ****   * @retval None.
 522:./Drivers/STM32F1xx_HAL_Driver/Src/stm32f1xx_hal_exti.c ****   */
 523:./Drivers/STM32F1xx_HAL_Driver/Src/stm32f1xx_hal_exti.c **** void HAL_EXTI_GenerateSWI(EXTI_HandleTypeDef *hexti)
 524:./Drivers/STM32F1xx_HAL_Driver/Src/stm32f1xx_hal_exti.c **** {
 941              		.loc 1 524 1
 942              		.cfi_startproc
 943              		@ args = 0, pretend = 0, frame = 16
 944              		@ frame_needed = 1, uses_anonymous_args = 0
 945              		@ link register save eliminated.
 946 0000 80B4     		push	{r7}
 947              		.cfi_def_cfa_offset 4
 948              		.cfi_offset 7, -4
 949 0002 85B0     		sub	sp, sp, #20
 950              		.cfi_def_cfa_offset 24
 951 0004 00AF     		add	r7, sp, #0
 952              		.cfi_def_cfa_register 7
 953 0006 7860     		str	r0, [r7, #4]
 525:./Drivers/STM32F1xx_HAL_Driver/Src/stm32f1xx_hal_exti.c ****   uint32_t maskline;
 526:./Drivers/STM32F1xx_HAL_Driver/Src/stm32f1xx_hal_exti.c **** 
 527:./Drivers/STM32F1xx_HAL_Driver/Src/stm32f1xx_hal_exti.c ****   /* Check parameters */
 528:./Drivers/STM32F1xx_HAL_Driver/Src/stm32f1xx_hal_exti.c ****   assert_param(IS_EXTI_LINE(hexti->Line));
 529:./Drivers/STM32F1xx_HAL_Driver/Src/stm32f1xx_hal_exti.c ****   assert_param(IS_EXTI_CONFIG_LINE(hexti->Line));
 530:./Drivers/STM32F1xx_HAL_Driver/Src/stm32f1xx_hal_exti.c **** 
 531:./Drivers/STM32F1xx_HAL_Driver/Src/stm32f1xx_hal_exti.c ****   /* Compute line mask */
 532:./Drivers/STM32F1xx_HAL_Driver/Src/stm32f1xx_hal_exti.c ****   maskline = (1uL << (hexti->Line & EXTI_PIN_MASK));
 954              		.loc 1 532 28
 955 0008 7B68     		ldr	r3, [r7, #4]
 956 000a 1B68     		ldr	r3, [r3]
 957              		.loc 1 532 35
 958 000c 03F01F03 		and	r3, r3, #31
 959              		.loc 1 532 12
 960 0010 0122     		movs	r2, #1
 961 0012 02FA03F3 		lsl	r3, r2, r3
 962 0016 FB60     		str	r3, [r7, #12]
 533:./Drivers/STM32F1xx_HAL_Driver/Src/stm32f1xx_hal_exti.c **** 
 534:./Drivers/STM32F1xx_HAL_Driver/Src/stm32f1xx_hal_exti.c ****   /* Generate Software interrupt */
 535:./Drivers/STM32F1xx_HAL_Driver/Src/stm32f1xx_hal_exti.c ****   EXTI->SWIER = maskline;
 963              		.loc 1 535 7
 964 0018 034A     		ldr	r2, .L54
ARM GAS  C:\Users\phucd\AppData\Local\Temp\ccTvEAiJ.s 			page 27


 965              		.loc 1 535 15
 966 001a FB68     		ldr	r3, [r7, #12]
 967 001c 1361     		str	r3, [r2, #16]
 536:./Drivers/STM32F1xx_HAL_Driver/Src/stm32f1xx_hal_exti.c **** }
 968              		.loc 1 536 1
 969 001e 00BF     		nop
 970 0020 1437     		adds	r7, r7, #20
 971              		.cfi_def_cfa_offset 4
 972 0022 BD46     		mov	sp, r7
 973              		.cfi_def_cfa_register 13
 974              		@ sp needed
 975 0024 80BC     		pop	{r7}
 976              		.cfi_restore 7
 977              		.cfi_def_cfa_offset 0
 978 0026 7047     		bx	lr
 979              	.L55:
 980              		.align	2
 981              	.L54:
 982 0028 00040140 		.word	1073808384
 983              		.cfi_endproc
 984              	.LFE73:
 986              		.text
 987              	.Letext0:
 988              		.file 2 "c:\\st\\stm32cubeide_1.7.0\\stm32cubeide\\plugins\\com.st.stm32cube.ide.mcu.externaltools
 989              		.file 3 "c:\\st\\stm32cubeide_1.7.0\\stm32cubeide\\plugins\\com.st.stm32cube.ide.mcu.externaltools
 990              		.file 4 "Drivers/CMSIS/Include/core_cm3.h"
 991              		.file 5 "Drivers/CMSIS/Device/ST/STM32F1xx/Include/system_stm32f1xx.h"
 992              		.file 6 "Drivers/CMSIS/Device/ST/STM32F1xx/Include/stm32f103xb.h"
 993              		.file 7 "Drivers/STM32F1xx_HAL_Driver/Inc/stm32f1xx_hal_def.h"
 994              		.file 8 "Drivers/STM32F1xx_HAL_Driver/Inc/stm32f1xx_hal_exti.h"
 995              		.file 9 "Drivers/STM32F1xx_HAL_Driver/Inc/stm32f1xx_hal.h"
ARM GAS  C:\Users\phucd\AppData\Local\Temp\ccTvEAiJ.s 			page 28

