ARM GAS  C:\Users\phucd\AppData\Local\Temp\ccc4tAyX.s 			page 1


   1              		.cpu cortex-m3
   2              		.eabi_attribute 20, 1
   3              		.eabi_attribute 21, 1
   4              		.eabi_attribute 23, 3
   5              		.eabi_attribute 24, 1
   6              		.eabi_attribute 25, 1
   7              		.eabi_attribute 26, 1
   8              		.eabi_attribute 30, 6
   9              		.eabi_attribute 34, 1
  10              		.eabi_attribute 18, 4
  11              		.file	"stm32f1xx_hal_tim.c"
  12              		.text
  13              	.Ltext0:
  14              		.cfi_sections	.debug_frame
  15              		.section	.text.HAL_TIM_Base_Init,"ax",%progbits
  16              		.align	1
  17              		.global	HAL_TIM_Base_Init
  18              		.arch armv7-m
  19              		.syntax unified
  20              		.thumb
  21              		.thumb_func
  22              		.fpu softvfp
  24              	HAL_TIM_Base_Init:
  25              	.LFB65:
  26              		.file 1 "./Drivers/STM32F1xx_HAL_Driver/Src/stm32f1xx_hal_tim.c"
   1:./Drivers/STM32F1xx_HAL_Driver/Src/stm32f1xx_hal_tim.c **** /**
   2:./Drivers/STM32F1xx_HAL_Driver/Src/stm32f1xx_hal_tim.c ****   ******************************************************************************
   3:./Drivers/STM32F1xx_HAL_Driver/Src/stm32f1xx_hal_tim.c ****   * @file    stm32f1xx_hal_tim.c
   4:./Drivers/STM32F1xx_HAL_Driver/Src/stm32f1xx_hal_tim.c ****   * @author  MCD Application Team
   5:./Drivers/STM32F1xx_HAL_Driver/Src/stm32f1xx_hal_tim.c ****   * @brief   TIM HAL module driver.
   6:./Drivers/STM32F1xx_HAL_Driver/Src/stm32f1xx_hal_tim.c ****   *          This file provides firmware functions to manage the following
   7:./Drivers/STM32F1xx_HAL_Driver/Src/stm32f1xx_hal_tim.c ****   *          functionalities of the Timer (TIM) peripheral:
   8:./Drivers/STM32F1xx_HAL_Driver/Src/stm32f1xx_hal_tim.c ****   *           + TIM Time Base Initialization
   9:./Drivers/STM32F1xx_HAL_Driver/Src/stm32f1xx_hal_tim.c ****   *           + TIM Time Base Start
  10:./Drivers/STM32F1xx_HAL_Driver/Src/stm32f1xx_hal_tim.c ****   *           + TIM Time Base Start Interruption
  11:./Drivers/STM32F1xx_HAL_Driver/Src/stm32f1xx_hal_tim.c ****   *           + TIM Time Base Start DMA
  12:./Drivers/STM32F1xx_HAL_Driver/Src/stm32f1xx_hal_tim.c ****   *           + TIM Output Compare/PWM Initialization
  13:./Drivers/STM32F1xx_HAL_Driver/Src/stm32f1xx_hal_tim.c ****   *           + TIM Output Compare/PWM Channel Configuration
  14:./Drivers/STM32F1xx_HAL_Driver/Src/stm32f1xx_hal_tim.c ****   *           + TIM Output Compare/PWM  Start
  15:./Drivers/STM32F1xx_HAL_Driver/Src/stm32f1xx_hal_tim.c ****   *           + TIM Output Compare/PWM  Start Interruption
  16:./Drivers/STM32F1xx_HAL_Driver/Src/stm32f1xx_hal_tim.c ****   *           + TIM Output Compare/PWM Start DMA
  17:./Drivers/STM32F1xx_HAL_Driver/Src/stm32f1xx_hal_tim.c ****   *           + TIM Input Capture Initialization
  18:./Drivers/STM32F1xx_HAL_Driver/Src/stm32f1xx_hal_tim.c ****   *           + TIM Input Capture Channel Configuration
  19:./Drivers/STM32F1xx_HAL_Driver/Src/stm32f1xx_hal_tim.c ****   *           + TIM Input Capture Start
  20:./Drivers/STM32F1xx_HAL_Driver/Src/stm32f1xx_hal_tim.c ****   *           + TIM Input Capture Start Interruption
  21:./Drivers/STM32F1xx_HAL_Driver/Src/stm32f1xx_hal_tim.c ****   *           + TIM Input Capture Start DMA
  22:./Drivers/STM32F1xx_HAL_Driver/Src/stm32f1xx_hal_tim.c ****   *           + TIM One Pulse Initialization
  23:./Drivers/STM32F1xx_HAL_Driver/Src/stm32f1xx_hal_tim.c ****   *           + TIM One Pulse Channel Configuration
  24:./Drivers/STM32F1xx_HAL_Driver/Src/stm32f1xx_hal_tim.c ****   *           + TIM One Pulse Start
  25:./Drivers/STM32F1xx_HAL_Driver/Src/stm32f1xx_hal_tim.c ****   *           + TIM Encoder Interface Initialization
  26:./Drivers/STM32F1xx_HAL_Driver/Src/stm32f1xx_hal_tim.c ****   *           + TIM Encoder Interface Start
  27:./Drivers/STM32F1xx_HAL_Driver/Src/stm32f1xx_hal_tim.c ****   *           + TIM Encoder Interface Start Interruption
  28:./Drivers/STM32F1xx_HAL_Driver/Src/stm32f1xx_hal_tim.c ****   *           + TIM Encoder Interface Start DMA
  29:./Drivers/STM32F1xx_HAL_Driver/Src/stm32f1xx_hal_tim.c ****   *           + Commutation Event configuration with Interruption and DMA
  30:./Drivers/STM32F1xx_HAL_Driver/Src/stm32f1xx_hal_tim.c ****   *           + TIM OCRef clear configuration
  31:./Drivers/STM32F1xx_HAL_Driver/Src/stm32f1xx_hal_tim.c ****   *           + TIM External Clock configuration
  32:./Drivers/STM32F1xx_HAL_Driver/Src/stm32f1xx_hal_tim.c ****   @verbatim
ARM GAS  C:\Users\phucd\AppData\Local\Temp\ccc4tAyX.s 			page 2


  33:./Drivers/STM32F1xx_HAL_Driver/Src/stm32f1xx_hal_tim.c ****   ==============================================================================
  34:./Drivers/STM32F1xx_HAL_Driver/Src/stm32f1xx_hal_tim.c ****                       ##### TIMER Generic features #####
  35:./Drivers/STM32F1xx_HAL_Driver/Src/stm32f1xx_hal_tim.c ****   ==============================================================================
  36:./Drivers/STM32F1xx_HAL_Driver/Src/stm32f1xx_hal_tim.c ****   [..] The Timer features include:
  37:./Drivers/STM32F1xx_HAL_Driver/Src/stm32f1xx_hal_tim.c ****        (#) 16-bit up, down, up/down auto-reload counter.
  38:./Drivers/STM32F1xx_HAL_Driver/Src/stm32f1xx_hal_tim.c ****        (#) 16-bit programmable prescaler allowing dividing (also on the fly) the
  39:./Drivers/STM32F1xx_HAL_Driver/Src/stm32f1xx_hal_tim.c ****            counter clock frequency either by any factor between 1 and 65536.
  40:./Drivers/STM32F1xx_HAL_Driver/Src/stm32f1xx_hal_tim.c ****        (#) Up to 4 independent channels for:
  41:./Drivers/STM32F1xx_HAL_Driver/Src/stm32f1xx_hal_tim.c ****            (++) Input Capture
  42:./Drivers/STM32F1xx_HAL_Driver/Src/stm32f1xx_hal_tim.c ****            (++) Output Compare
  43:./Drivers/STM32F1xx_HAL_Driver/Src/stm32f1xx_hal_tim.c ****            (++) PWM generation (Edge and Center-aligned Mode)
  44:./Drivers/STM32F1xx_HAL_Driver/Src/stm32f1xx_hal_tim.c ****            (++) One-pulse mode output
  45:./Drivers/STM32F1xx_HAL_Driver/Src/stm32f1xx_hal_tim.c ****        (#) Synchronization circuit to control the timer with external signals and to interconnect
  46:./Drivers/STM32F1xx_HAL_Driver/Src/stm32f1xx_hal_tim.c ****             several timers together.
  47:./Drivers/STM32F1xx_HAL_Driver/Src/stm32f1xx_hal_tim.c ****        (#) Supports incremental encoder for positioning purposes
  48:./Drivers/STM32F1xx_HAL_Driver/Src/stm32f1xx_hal_tim.c **** 
  49:./Drivers/STM32F1xx_HAL_Driver/Src/stm32f1xx_hal_tim.c ****             ##### How to use this driver #####
  50:./Drivers/STM32F1xx_HAL_Driver/Src/stm32f1xx_hal_tim.c ****   ==============================================================================
  51:./Drivers/STM32F1xx_HAL_Driver/Src/stm32f1xx_hal_tim.c ****     [..]
  52:./Drivers/STM32F1xx_HAL_Driver/Src/stm32f1xx_hal_tim.c ****      (#) Initialize the TIM low level resources by implementing the following functions
  53:./Drivers/STM32F1xx_HAL_Driver/Src/stm32f1xx_hal_tim.c ****          depending on the selected feature:
  54:./Drivers/STM32F1xx_HAL_Driver/Src/stm32f1xx_hal_tim.c ****            (++) Time Base : HAL_TIM_Base_MspInit()
  55:./Drivers/STM32F1xx_HAL_Driver/Src/stm32f1xx_hal_tim.c ****            (++) Input Capture : HAL_TIM_IC_MspInit()
  56:./Drivers/STM32F1xx_HAL_Driver/Src/stm32f1xx_hal_tim.c ****            (++) Output Compare : HAL_TIM_OC_MspInit()
  57:./Drivers/STM32F1xx_HAL_Driver/Src/stm32f1xx_hal_tim.c ****            (++) PWM generation : HAL_TIM_PWM_MspInit()
  58:./Drivers/STM32F1xx_HAL_Driver/Src/stm32f1xx_hal_tim.c ****            (++) One-pulse mode output : HAL_TIM_OnePulse_MspInit()
  59:./Drivers/STM32F1xx_HAL_Driver/Src/stm32f1xx_hal_tim.c ****            (++) Encoder mode output : HAL_TIM_Encoder_MspInit()
  60:./Drivers/STM32F1xx_HAL_Driver/Src/stm32f1xx_hal_tim.c **** 
  61:./Drivers/STM32F1xx_HAL_Driver/Src/stm32f1xx_hal_tim.c ****      (#) Initialize the TIM low level resources :
  62:./Drivers/STM32F1xx_HAL_Driver/Src/stm32f1xx_hal_tim.c ****         (##) Enable the TIM interface clock using __HAL_RCC_TIMx_CLK_ENABLE();
  63:./Drivers/STM32F1xx_HAL_Driver/Src/stm32f1xx_hal_tim.c ****         (##) TIM pins configuration
  64:./Drivers/STM32F1xx_HAL_Driver/Src/stm32f1xx_hal_tim.c ****             (+++) Enable the clock for the TIM GPIOs using the following function:
  65:./Drivers/STM32F1xx_HAL_Driver/Src/stm32f1xx_hal_tim.c ****              __HAL_RCC_GPIOx_CLK_ENABLE();
  66:./Drivers/STM32F1xx_HAL_Driver/Src/stm32f1xx_hal_tim.c ****             (+++) Configure these TIM pins in Alternate function mode using HAL_GPIO_Init();
  67:./Drivers/STM32F1xx_HAL_Driver/Src/stm32f1xx_hal_tim.c **** 
  68:./Drivers/STM32F1xx_HAL_Driver/Src/stm32f1xx_hal_tim.c ****      (#) The external Clock can be configured, if needed (the default clock is the
  69:./Drivers/STM32F1xx_HAL_Driver/Src/stm32f1xx_hal_tim.c ****          internal clock from the APBx), using the following function:
  70:./Drivers/STM32F1xx_HAL_Driver/Src/stm32f1xx_hal_tim.c ****          HAL_TIM_ConfigClockSource, the clock configuration should be done before
  71:./Drivers/STM32F1xx_HAL_Driver/Src/stm32f1xx_hal_tim.c ****          any start function.
  72:./Drivers/STM32F1xx_HAL_Driver/Src/stm32f1xx_hal_tim.c **** 
  73:./Drivers/STM32F1xx_HAL_Driver/Src/stm32f1xx_hal_tim.c ****      (#) Configure the TIM in the desired functioning mode using one of the
  74:./Drivers/STM32F1xx_HAL_Driver/Src/stm32f1xx_hal_tim.c ****        Initialization function of this driver:
  75:./Drivers/STM32F1xx_HAL_Driver/Src/stm32f1xx_hal_tim.c ****        (++) HAL_TIM_Base_Init: to use the Timer to generate a simple time base
  76:./Drivers/STM32F1xx_HAL_Driver/Src/stm32f1xx_hal_tim.c ****        (++) HAL_TIM_OC_Init and HAL_TIM_OC_ConfigChannel: to use the Timer to generate an
  77:./Drivers/STM32F1xx_HAL_Driver/Src/stm32f1xx_hal_tim.c ****             Output Compare signal.
  78:./Drivers/STM32F1xx_HAL_Driver/Src/stm32f1xx_hal_tim.c ****        (++) HAL_TIM_PWM_Init and HAL_TIM_PWM_ConfigChannel: to use the Timer to generate a
  79:./Drivers/STM32F1xx_HAL_Driver/Src/stm32f1xx_hal_tim.c ****             PWM signal.
  80:./Drivers/STM32F1xx_HAL_Driver/Src/stm32f1xx_hal_tim.c ****        (++) HAL_TIM_IC_Init and HAL_TIM_IC_ConfigChannel: to use the Timer to measure an
  81:./Drivers/STM32F1xx_HAL_Driver/Src/stm32f1xx_hal_tim.c ****             external signal.
  82:./Drivers/STM32F1xx_HAL_Driver/Src/stm32f1xx_hal_tim.c ****        (++) HAL_TIM_OnePulse_Init and HAL_TIM_OnePulse_ConfigChannel: to use the Timer
  83:./Drivers/STM32F1xx_HAL_Driver/Src/stm32f1xx_hal_tim.c ****             in One Pulse Mode.
  84:./Drivers/STM32F1xx_HAL_Driver/Src/stm32f1xx_hal_tim.c ****        (++) HAL_TIM_Encoder_Init: to use the Timer Encoder Interface.
  85:./Drivers/STM32F1xx_HAL_Driver/Src/stm32f1xx_hal_tim.c **** 
  86:./Drivers/STM32F1xx_HAL_Driver/Src/stm32f1xx_hal_tim.c ****      (#) Activate the TIM peripheral using one of the start functions depending from the feature us
  87:./Drivers/STM32F1xx_HAL_Driver/Src/stm32f1xx_hal_tim.c ****            (++) Time Base : HAL_TIM_Base_Start(), HAL_TIM_Base_Start_DMA(), HAL_TIM_Base_Start_IT()
  88:./Drivers/STM32F1xx_HAL_Driver/Src/stm32f1xx_hal_tim.c ****            (++) Input Capture :  HAL_TIM_IC_Start(), HAL_TIM_IC_Start_DMA(), HAL_TIM_IC_Start_IT()
  89:./Drivers/STM32F1xx_HAL_Driver/Src/stm32f1xx_hal_tim.c ****            (++) Output Compare : HAL_TIM_OC_Start(), HAL_TIM_OC_Start_DMA(), HAL_TIM_OC_Start_IT()
ARM GAS  C:\Users\phucd\AppData\Local\Temp\ccc4tAyX.s 			page 3


  90:./Drivers/STM32F1xx_HAL_Driver/Src/stm32f1xx_hal_tim.c ****            (++) PWM generation : HAL_TIM_PWM_Start(), HAL_TIM_PWM_Start_DMA(), HAL_TIM_PWM_Start_IT
  91:./Drivers/STM32F1xx_HAL_Driver/Src/stm32f1xx_hal_tim.c ****            (++) One-pulse mode output : HAL_TIM_OnePulse_Start(), HAL_TIM_OnePulse_Start_IT()
  92:./Drivers/STM32F1xx_HAL_Driver/Src/stm32f1xx_hal_tim.c ****            (++) Encoder mode output : HAL_TIM_Encoder_Start(), HAL_TIM_Encoder_Start_DMA(), HAL_TIM
  93:./Drivers/STM32F1xx_HAL_Driver/Src/stm32f1xx_hal_tim.c **** 
  94:./Drivers/STM32F1xx_HAL_Driver/Src/stm32f1xx_hal_tim.c ****      (#) The DMA Burst is managed with the two following functions:
  95:./Drivers/STM32F1xx_HAL_Driver/Src/stm32f1xx_hal_tim.c ****          HAL_TIM_DMABurst_WriteStart()
  96:./Drivers/STM32F1xx_HAL_Driver/Src/stm32f1xx_hal_tim.c ****          HAL_TIM_DMABurst_ReadStart()
  97:./Drivers/STM32F1xx_HAL_Driver/Src/stm32f1xx_hal_tim.c **** 
  98:./Drivers/STM32F1xx_HAL_Driver/Src/stm32f1xx_hal_tim.c ****     *** Callback registration ***
  99:./Drivers/STM32F1xx_HAL_Driver/Src/stm32f1xx_hal_tim.c ****   =============================================
 100:./Drivers/STM32F1xx_HAL_Driver/Src/stm32f1xx_hal_tim.c **** 
 101:./Drivers/STM32F1xx_HAL_Driver/Src/stm32f1xx_hal_tim.c ****   [..]
 102:./Drivers/STM32F1xx_HAL_Driver/Src/stm32f1xx_hal_tim.c ****   The compilation define  USE_HAL_TIM_REGISTER_CALLBACKS when set to 1
 103:./Drivers/STM32F1xx_HAL_Driver/Src/stm32f1xx_hal_tim.c ****   allows the user to configure dynamically the driver callbacks.
 104:./Drivers/STM32F1xx_HAL_Driver/Src/stm32f1xx_hal_tim.c **** 
 105:./Drivers/STM32F1xx_HAL_Driver/Src/stm32f1xx_hal_tim.c ****   [..]
 106:./Drivers/STM32F1xx_HAL_Driver/Src/stm32f1xx_hal_tim.c ****   Use Function @ref HAL_TIM_RegisterCallback() to register a callback.
 107:./Drivers/STM32F1xx_HAL_Driver/Src/stm32f1xx_hal_tim.c ****   @ref HAL_TIM_RegisterCallback() takes as parameters the HAL peripheral handle,
 108:./Drivers/STM32F1xx_HAL_Driver/Src/stm32f1xx_hal_tim.c ****   the Callback ID and a pointer to the user callback function.
 109:./Drivers/STM32F1xx_HAL_Driver/Src/stm32f1xx_hal_tim.c **** 
 110:./Drivers/STM32F1xx_HAL_Driver/Src/stm32f1xx_hal_tim.c ****   [..]
 111:./Drivers/STM32F1xx_HAL_Driver/Src/stm32f1xx_hal_tim.c ****   Use function @ref HAL_TIM_UnRegisterCallback() to reset a callback to the default
 112:./Drivers/STM32F1xx_HAL_Driver/Src/stm32f1xx_hal_tim.c ****   weak function.
 113:./Drivers/STM32F1xx_HAL_Driver/Src/stm32f1xx_hal_tim.c ****   @ref HAL_TIM_UnRegisterCallback takes as parameters the HAL peripheral handle,
 114:./Drivers/STM32F1xx_HAL_Driver/Src/stm32f1xx_hal_tim.c ****   and the Callback ID.
 115:./Drivers/STM32F1xx_HAL_Driver/Src/stm32f1xx_hal_tim.c **** 
 116:./Drivers/STM32F1xx_HAL_Driver/Src/stm32f1xx_hal_tim.c ****   [..]
 117:./Drivers/STM32F1xx_HAL_Driver/Src/stm32f1xx_hal_tim.c ****   These functions allow to register/unregister following callbacks:
 118:./Drivers/STM32F1xx_HAL_Driver/Src/stm32f1xx_hal_tim.c ****     (+) Base_MspInitCallback              : TIM Base Msp Init Callback.
 119:./Drivers/STM32F1xx_HAL_Driver/Src/stm32f1xx_hal_tim.c ****     (+) Base_MspDeInitCallback            : TIM Base Msp DeInit Callback.
 120:./Drivers/STM32F1xx_HAL_Driver/Src/stm32f1xx_hal_tim.c ****     (+) IC_MspInitCallback                : TIM IC Msp Init Callback.
 121:./Drivers/STM32F1xx_HAL_Driver/Src/stm32f1xx_hal_tim.c ****     (+) IC_MspDeInitCallback              : TIM IC Msp DeInit Callback.
 122:./Drivers/STM32F1xx_HAL_Driver/Src/stm32f1xx_hal_tim.c ****     (+) OC_MspInitCallback                : TIM OC Msp Init Callback.
 123:./Drivers/STM32F1xx_HAL_Driver/Src/stm32f1xx_hal_tim.c ****     (+) OC_MspDeInitCallback              : TIM OC Msp DeInit Callback.
 124:./Drivers/STM32F1xx_HAL_Driver/Src/stm32f1xx_hal_tim.c ****     (+) PWM_MspInitCallback               : TIM PWM Msp Init Callback.
 125:./Drivers/STM32F1xx_HAL_Driver/Src/stm32f1xx_hal_tim.c ****     (+) PWM_MspDeInitCallback             : TIM PWM Msp DeInit Callback.
 126:./Drivers/STM32F1xx_HAL_Driver/Src/stm32f1xx_hal_tim.c ****     (+) OnePulse_MspInitCallback          : TIM One Pulse Msp Init Callback.
 127:./Drivers/STM32F1xx_HAL_Driver/Src/stm32f1xx_hal_tim.c ****     (+) OnePulse_MspDeInitCallback        : TIM One Pulse Msp DeInit Callback.
 128:./Drivers/STM32F1xx_HAL_Driver/Src/stm32f1xx_hal_tim.c ****     (+) Encoder_MspInitCallback           : TIM Encoder Msp Init Callback.
 129:./Drivers/STM32F1xx_HAL_Driver/Src/stm32f1xx_hal_tim.c ****     (+) Encoder_MspDeInitCallback         : TIM Encoder Msp DeInit Callback.
 130:./Drivers/STM32F1xx_HAL_Driver/Src/stm32f1xx_hal_tim.c ****     (+) HallSensor_MspInitCallback        : TIM Hall Sensor Msp Init Callback.
 131:./Drivers/STM32F1xx_HAL_Driver/Src/stm32f1xx_hal_tim.c ****     (+) HallSensor_MspDeInitCallback      : TIM Hall Sensor Msp DeInit Callback.
 132:./Drivers/STM32F1xx_HAL_Driver/Src/stm32f1xx_hal_tim.c ****     (+) PeriodElapsedCallback             : TIM Period Elapsed Callback.
 133:./Drivers/STM32F1xx_HAL_Driver/Src/stm32f1xx_hal_tim.c ****     (+) PeriodElapsedHalfCpltCallback     : TIM Period Elapsed half complete Callback.
 134:./Drivers/STM32F1xx_HAL_Driver/Src/stm32f1xx_hal_tim.c ****     (+) TriggerCallback                   : TIM Trigger Callback.
 135:./Drivers/STM32F1xx_HAL_Driver/Src/stm32f1xx_hal_tim.c ****     (+) TriggerHalfCpltCallback           : TIM Trigger half complete Callback.
 136:./Drivers/STM32F1xx_HAL_Driver/Src/stm32f1xx_hal_tim.c ****     (+) IC_CaptureCallback                : TIM Input Capture Callback.
 137:./Drivers/STM32F1xx_HAL_Driver/Src/stm32f1xx_hal_tim.c ****     (+) IC_CaptureHalfCpltCallback        : TIM Input Capture half complete Callback.
 138:./Drivers/STM32F1xx_HAL_Driver/Src/stm32f1xx_hal_tim.c ****     (+) OC_DelayElapsedCallback           : TIM Output Compare Delay Elapsed Callback.
 139:./Drivers/STM32F1xx_HAL_Driver/Src/stm32f1xx_hal_tim.c ****     (+) PWM_PulseFinishedCallback         : TIM PWM Pulse Finished Callback.
 140:./Drivers/STM32F1xx_HAL_Driver/Src/stm32f1xx_hal_tim.c ****     (+) PWM_PulseFinishedHalfCpltCallback : TIM PWM Pulse Finished half complete Callback.
 141:./Drivers/STM32F1xx_HAL_Driver/Src/stm32f1xx_hal_tim.c ****     (+) ErrorCallback                     : TIM Error Callback.
 142:./Drivers/STM32F1xx_HAL_Driver/Src/stm32f1xx_hal_tim.c ****     (+) CommutationCallback               : TIM Commutation Callback.
 143:./Drivers/STM32F1xx_HAL_Driver/Src/stm32f1xx_hal_tim.c ****     (+) CommutationHalfCpltCallback       : TIM Commutation half complete Callback.
 144:./Drivers/STM32F1xx_HAL_Driver/Src/stm32f1xx_hal_tim.c ****     (+) BreakCallback                     : TIM Break Callback.
 145:./Drivers/STM32F1xx_HAL_Driver/Src/stm32f1xx_hal_tim.c **** 
 146:./Drivers/STM32F1xx_HAL_Driver/Src/stm32f1xx_hal_tim.c ****   [..]
ARM GAS  C:\Users\phucd\AppData\Local\Temp\ccc4tAyX.s 			page 4


 147:./Drivers/STM32F1xx_HAL_Driver/Src/stm32f1xx_hal_tim.c **** By default, after the Init and when the state is HAL_TIM_STATE_RESET
 148:./Drivers/STM32F1xx_HAL_Driver/Src/stm32f1xx_hal_tim.c **** all interrupt callbacks are set to the corresponding weak functions:
 149:./Drivers/STM32F1xx_HAL_Driver/Src/stm32f1xx_hal_tim.c ****   examples @ref HAL_TIM_TriggerCallback(), @ref HAL_TIM_ErrorCallback().
 150:./Drivers/STM32F1xx_HAL_Driver/Src/stm32f1xx_hal_tim.c **** 
 151:./Drivers/STM32F1xx_HAL_Driver/Src/stm32f1xx_hal_tim.c ****   [..]
 152:./Drivers/STM32F1xx_HAL_Driver/Src/stm32f1xx_hal_tim.c ****   Exception done for MspInit and MspDeInit functions that are reset to the legacy weak
 153:./Drivers/STM32F1xx_HAL_Driver/Src/stm32f1xx_hal_tim.c ****   functionalities in the Init / DeInit only when these callbacks are null
 154:./Drivers/STM32F1xx_HAL_Driver/Src/stm32f1xx_hal_tim.c ****   (not registered beforehand). If not, MspInit or MspDeInit are not null, the Init / DeInit
 155:./Drivers/STM32F1xx_HAL_Driver/Src/stm32f1xx_hal_tim.c ****     keep and use the user MspInit / MspDeInit callbacks(registered beforehand)
 156:./Drivers/STM32F1xx_HAL_Driver/Src/stm32f1xx_hal_tim.c **** 
 157:./Drivers/STM32F1xx_HAL_Driver/Src/stm32f1xx_hal_tim.c ****   [..]
 158:./Drivers/STM32F1xx_HAL_Driver/Src/stm32f1xx_hal_tim.c ****     Callbacks can be registered / unregistered in HAL_TIM_STATE_READY state only.
 159:./Drivers/STM32F1xx_HAL_Driver/Src/stm32f1xx_hal_tim.c ****     Exception done MspInit / MspDeInit that can be registered / unregistered
 160:./Drivers/STM32F1xx_HAL_Driver/Src/stm32f1xx_hal_tim.c ****     in HAL_TIM_STATE_READY or HAL_TIM_STATE_RESET state,
 161:./Drivers/STM32F1xx_HAL_Driver/Src/stm32f1xx_hal_tim.c ****     thus registered(user) MspInit / DeInit callbacks can be used during the Init / DeInit.
 162:./Drivers/STM32F1xx_HAL_Driver/Src/stm32f1xx_hal_tim.c ****   In that case first register the MspInit/MspDeInit user callbacks
 163:./Drivers/STM32F1xx_HAL_Driver/Src/stm32f1xx_hal_tim.c ****       using @ref HAL_TIM_RegisterCallback() before calling DeInit or Init function.
 164:./Drivers/STM32F1xx_HAL_Driver/Src/stm32f1xx_hal_tim.c **** 
 165:./Drivers/STM32F1xx_HAL_Driver/Src/stm32f1xx_hal_tim.c ****   [..]
 166:./Drivers/STM32F1xx_HAL_Driver/Src/stm32f1xx_hal_tim.c ****       When The compilation define USE_HAL_TIM_REGISTER_CALLBACKS is set to 0 or
 167:./Drivers/STM32F1xx_HAL_Driver/Src/stm32f1xx_hal_tim.c ****       not defined, the callback registration feature is not available and all callbacks
 168:./Drivers/STM32F1xx_HAL_Driver/Src/stm32f1xx_hal_tim.c ****       are set to the corresponding weak functions.
 169:./Drivers/STM32F1xx_HAL_Driver/Src/stm32f1xx_hal_tim.c **** 
 170:./Drivers/STM32F1xx_HAL_Driver/Src/stm32f1xx_hal_tim.c ****   @endverbatim
 171:./Drivers/STM32F1xx_HAL_Driver/Src/stm32f1xx_hal_tim.c ****   ******************************************************************************
 172:./Drivers/STM32F1xx_HAL_Driver/Src/stm32f1xx_hal_tim.c ****   * @attention
 173:./Drivers/STM32F1xx_HAL_Driver/Src/stm32f1xx_hal_tim.c ****   *
 174:./Drivers/STM32F1xx_HAL_Driver/Src/stm32f1xx_hal_tim.c ****   * <h2><center>&copy; Copyright (c) 2016 STMicroelectronics.
 175:./Drivers/STM32F1xx_HAL_Driver/Src/stm32f1xx_hal_tim.c ****   * All rights reserved.</center></h2>
 176:./Drivers/STM32F1xx_HAL_Driver/Src/stm32f1xx_hal_tim.c ****   *
 177:./Drivers/STM32F1xx_HAL_Driver/Src/stm32f1xx_hal_tim.c ****   * This software component is licensed by ST under BSD 3-Clause license,
 178:./Drivers/STM32F1xx_HAL_Driver/Src/stm32f1xx_hal_tim.c ****   * the "License"; You may not use this file except in compliance with the
 179:./Drivers/STM32F1xx_HAL_Driver/Src/stm32f1xx_hal_tim.c ****   * License. You may obtain a copy of the License at:
 180:./Drivers/STM32F1xx_HAL_Driver/Src/stm32f1xx_hal_tim.c ****   *                        opensource.org/licenses/BSD-3-Clause
 181:./Drivers/STM32F1xx_HAL_Driver/Src/stm32f1xx_hal_tim.c ****   *
 182:./Drivers/STM32F1xx_HAL_Driver/Src/stm32f1xx_hal_tim.c ****   ******************************************************************************
 183:./Drivers/STM32F1xx_HAL_Driver/Src/stm32f1xx_hal_tim.c ****   */
 184:./Drivers/STM32F1xx_HAL_Driver/Src/stm32f1xx_hal_tim.c **** 
 185:./Drivers/STM32F1xx_HAL_Driver/Src/stm32f1xx_hal_tim.c **** /* Includes ------------------------------------------------------------------*/
 186:./Drivers/STM32F1xx_HAL_Driver/Src/stm32f1xx_hal_tim.c **** #include "stm32f1xx_hal.h"
 187:./Drivers/STM32F1xx_HAL_Driver/Src/stm32f1xx_hal_tim.c **** 
 188:./Drivers/STM32F1xx_HAL_Driver/Src/stm32f1xx_hal_tim.c **** /** @addtogroup STM32F1xx_HAL_Driver
 189:./Drivers/STM32F1xx_HAL_Driver/Src/stm32f1xx_hal_tim.c ****   * @{
 190:./Drivers/STM32F1xx_HAL_Driver/Src/stm32f1xx_hal_tim.c ****   */
 191:./Drivers/STM32F1xx_HAL_Driver/Src/stm32f1xx_hal_tim.c **** 
 192:./Drivers/STM32F1xx_HAL_Driver/Src/stm32f1xx_hal_tim.c **** /** @defgroup TIM TIM
 193:./Drivers/STM32F1xx_HAL_Driver/Src/stm32f1xx_hal_tim.c ****   * @brief TIM HAL module driver
 194:./Drivers/STM32F1xx_HAL_Driver/Src/stm32f1xx_hal_tim.c ****   * @{
 195:./Drivers/STM32F1xx_HAL_Driver/Src/stm32f1xx_hal_tim.c ****   */
 196:./Drivers/STM32F1xx_HAL_Driver/Src/stm32f1xx_hal_tim.c **** 
 197:./Drivers/STM32F1xx_HAL_Driver/Src/stm32f1xx_hal_tim.c **** #ifdef HAL_TIM_MODULE_ENABLED
 198:./Drivers/STM32F1xx_HAL_Driver/Src/stm32f1xx_hal_tim.c **** 
 199:./Drivers/STM32F1xx_HAL_Driver/Src/stm32f1xx_hal_tim.c **** /* Private typedef -----------------------------------------------------------*/
 200:./Drivers/STM32F1xx_HAL_Driver/Src/stm32f1xx_hal_tim.c **** /* Private define ------------------------------------------------------------*/
 201:./Drivers/STM32F1xx_HAL_Driver/Src/stm32f1xx_hal_tim.c **** /* Private macros ------------------------------------------------------------*/
 202:./Drivers/STM32F1xx_HAL_Driver/Src/stm32f1xx_hal_tim.c **** /* Private variables ---------------------------------------------------------*/
 203:./Drivers/STM32F1xx_HAL_Driver/Src/stm32f1xx_hal_tim.c **** /* Private function prototypes -----------------------------------------------*/
ARM GAS  C:\Users\phucd\AppData\Local\Temp\ccc4tAyX.s 			page 5


 204:./Drivers/STM32F1xx_HAL_Driver/Src/stm32f1xx_hal_tim.c **** /** @addtogroup TIM_Private_Functions
 205:./Drivers/STM32F1xx_HAL_Driver/Src/stm32f1xx_hal_tim.c ****   * @{
 206:./Drivers/STM32F1xx_HAL_Driver/Src/stm32f1xx_hal_tim.c ****   */
 207:./Drivers/STM32F1xx_HAL_Driver/Src/stm32f1xx_hal_tim.c **** static void TIM_OC1_SetConfig(TIM_TypeDef *TIMx, TIM_OC_InitTypeDef *OC_Config);
 208:./Drivers/STM32F1xx_HAL_Driver/Src/stm32f1xx_hal_tim.c **** static void TIM_OC3_SetConfig(TIM_TypeDef *TIMx, TIM_OC_InitTypeDef *OC_Config);
 209:./Drivers/STM32F1xx_HAL_Driver/Src/stm32f1xx_hal_tim.c **** static void TIM_OC4_SetConfig(TIM_TypeDef *TIMx, TIM_OC_InitTypeDef *OC_Config);
 210:./Drivers/STM32F1xx_HAL_Driver/Src/stm32f1xx_hal_tim.c **** static void TIM_TI1_ConfigInputStage(TIM_TypeDef *TIMx, uint32_t TIM_ICPolarity, uint32_t TIM_ICFil
 211:./Drivers/STM32F1xx_HAL_Driver/Src/stm32f1xx_hal_tim.c **** static void TIM_TI2_SetConfig(TIM_TypeDef *TIMx, uint32_t TIM_ICPolarity, uint32_t TIM_ICSelection,
 212:./Drivers/STM32F1xx_HAL_Driver/Src/stm32f1xx_hal_tim.c ****                               uint32_t TIM_ICFilter);
 213:./Drivers/STM32F1xx_HAL_Driver/Src/stm32f1xx_hal_tim.c **** static void TIM_TI2_ConfigInputStage(TIM_TypeDef *TIMx, uint32_t TIM_ICPolarity, uint32_t TIM_ICFil
 214:./Drivers/STM32F1xx_HAL_Driver/Src/stm32f1xx_hal_tim.c **** static void TIM_TI3_SetConfig(TIM_TypeDef *TIMx, uint32_t TIM_ICPolarity, uint32_t TIM_ICSelection,
 215:./Drivers/STM32F1xx_HAL_Driver/Src/stm32f1xx_hal_tim.c ****                               uint32_t TIM_ICFilter);
 216:./Drivers/STM32F1xx_HAL_Driver/Src/stm32f1xx_hal_tim.c **** static void TIM_TI4_SetConfig(TIM_TypeDef *TIMx, uint32_t TIM_ICPolarity, uint32_t TIM_ICSelection,
 217:./Drivers/STM32F1xx_HAL_Driver/Src/stm32f1xx_hal_tim.c ****                               uint32_t TIM_ICFilter);
 218:./Drivers/STM32F1xx_HAL_Driver/Src/stm32f1xx_hal_tim.c **** static void TIM_ITRx_SetConfig(TIM_TypeDef *TIMx, uint32_t InputTriggerSource);
 219:./Drivers/STM32F1xx_HAL_Driver/Src/stm32f1xx_hal_tim.c **** static void TIM_DMAPeriodElapsedCplt(DMA_HandleTypeDef *hdma);
 220:./Drivers/STM32F1xx_HAL_Driver/Src/stm32f1xx_hal_tim.c **** static void TIM_DMAPeriodElapsedHalfCplt(DMA_HandleTypeDef *hdma);
 221:./Drivers/STM32F1xx_HAL_Driver/Src/stm32f1xx_hal_tim.c **** static void TIM_DMADelayPulseCplt(DMA_HandleTypeDef *hdma);
 222:./Drivers/STM32F1xx_HAL_Driver/Src/stm32f1xx_hal_tim.c **** static void TIM_DMATriggerCplt(DMA_HandleTypeDef *hdma);
 223:./Drivers/STM32F1xx_HAL_Driver/Src/stm32f1xx_hal_tim.c **** static void TIM_DMATriggerHalfCplt(DMA_HandleTypeDef *hdma);
 224:./Drivers/STM32F1xx_HAL_Driver/Src/stm32f1xx_hal_tim.c **** static HAL_StatusTypeDef TIM_SlaveTimer_SetConfig(TIM_HandleTypeDef *htim,
 225:./Drivers/STM32F1xx_HAL_Driver/Src/stm32f1xx_hal_tim.c ****                                                   TIM_SlaveConfigTypeDef *sSlaveConfig);
 226:./Drivers/STM32F1xx_HAL_Driver/Src/stm32f1xx_hal_tim.c **** /**
 227:./Drivers/STM32F1xx_HAL_Driver/Src/stm32f1xx_hal_tim.c ****   * @}
 228:./Drivers/STM32F1xx_HAL_Driver/Src/stm32f1xx_hal_tim.c ****   */
 229:./Drivers/STM32F1xx_HAL_Driver/Src/stm32f1xx_hal_tim.c **** /* Exported functions --------------------------------------------------------*/
 230:./Drivers/STM32F1xx_HAL_Driver/Src/stm32f1xx_hal_tim.c **** 
 231:./Drivers/STM32F1xx_HAL_Driver/Src/stm32f1xx_hal_tim.c **** /** @defgroup TIM_Exported_Functions TIM Exported Functions
 232:./Drivers/STM32F1xx_HAL_Driver/Src/stm32f1xx_hal_tim.c ****   * @{
 233:./Drivers/STM32F1xx_HAL_Driver/Src/stm32f1xx_hal_tim.c ****   */
 234:./Drivers/STM32F1xx_HAL_Driver/Src/stm32f1xx_hal_tim.c **** 
 235:./Drivers/STM32F1xx_HAL_Driver/Src/stm32f1xx_hal_tim.c **** /** @defgroup TIM_Exported_Functions_Group1 TIM Time Base functions
 236:./Drivers/STM32F1xx_HAL_Driver/Src/stm32f1xx_hal_tim.c ****   *  @brief    Time Base functions
 237:./Drivers/STM32F1xx_HAL_Driver/Src/stm32f1xx_hal_tim.c ****   *
 238:./Drivers/STM32F1xx_HAL_Driver/Src/stm32f1xx_hal_tim.c **** @verbatim
 239:./Drivers/STM32F1xx_HAL_Driver/Src/stm32f1xx_hal_tim.c ****   ==============================================================================
 240:./Drivers/STM32F1xx_HAL_Driver/Src/stm32f1xx_hal_tim.c ****               ##### Time Base functions #####
 241:./Drivers/STM32F1xx_HAL_Driver/Src/stm32f1xx_hal_tim.c ****   ==============================================================================
 242:./Drivers/STM32F1xx_HAL_Driver/Src/stm32f1xx_hal_tim.c ****   [..]
 243:./Drivers/STM32F1xx_HAL_Driver/Src/stm32f1xx_hal_tim.c ****     This section provides functions allowing to:
 244:./Drivers/STM32F1xx_HAL_Driver/Src/stm32f1xx_hal_tim.c ****     (+) Initialize and configure the TIM base.
 245:./Drivers/STM32F1xx_HAL_Driver/Src/stm32f1xx_hal_tim.c ****     (+) De-initialize the TIM base.
 246:./Drivers/STM32F1xx_HAL_Driver/Src/stm32f1xx_hal_tim.c ****     (+) Start the Time Base.
 247:./Drivers/STM32F1xx_HAL_Driver/Src/stm32f1xx_hal_tim.c ****     (+) Stop the Time Base.
 248:./Drivers/STM32F1xx_HAL_Driver/Src/stm32f1xx_hal_tim.c ****     (+) Start the Time Base and enable interrupt.
 249:./Drivers/STM32F1xx_HAL_Driver/Src/stm32f1xx_hal_tim.c ****     (+) Stop the Time Base and disable interrupt.
 250:./Drivers/STM32F1xx_HAL_Driver/Src/stm32f1xx_hal_tim.c ****     (+) Start the Time Base and enable DMA transfer.
 251:./Drivers/STM32F1xx_HAL_Driver/Src/stm32f1xx_hal_tim.c ****     (+) Stop the Time Base and disable DMA transfer.
 252:./Drivers/STM32F1xx_HAL_Driver/Src/stm32f1xx_hal_tim.c **** 
 253:./Drivers/STM32F1xx_HAL_Driver/Src/stm32f1xx_hal_tim.c **** @endverbatim
 254:./Drivers/STM32F1xx_HAL_Driver/Src/stm32f1xx_hal_tim.c ****   * @{
 255:./Drivers/STM32F1xx_HAL_Driver/Src/stm32f1xx_hal_tim.c ****   */
 256:./Drivers/STM32F1xx_HAL_Driver/Src/stm32f1xx_hal_tim.c **** /**
 257:./Drivers/STM32F1xx_HAL_Driver/Src/stm32f1xx_hal_tim.c ****   * @brief  Initializes the TIM Time base Unit according to the specified
 258:./Drivers/STM32F1xx_HAL_Driver/Src/stm32f1xx_hal_tim.c ****   *         parameters in the TIM_HandleTypeDef and initialize the associated handle.
 259:./Drivers/STM32F1xx_HAL_Driver/Src/stm32f1xx_hal_tim.c ****   * @note   Switching from Center Aligned counter mode to Edge counter mode (or reverse)
 260:./Drivers/STM32F1xx_HAL_Driver/Src/stm32f1xx_hal_tim.c ****   *         requires a timer reset to avoid unexpected direction
ARM GAS  C:\Users\phucd\AppData\Local\Temp\ccc4tAyX.s 			page 6


 261:./Drivers/STM32F1xx_HAL_Driver/Src/stm32f1xx_hal_tim.c ****   *         due to DIR bit readonly in center aligned mode.
 262:./Drivers/STM32F1xx_HAL_Driver/Src/stm32f1xx_hal_tim.c ****   *         Ex: call @ref HAL_TIM_Base_DeInit() before HAL_TIM_Base_Init()
 263:./Drivers/STM32F1xx_HAL_Driver/Src/stm32f1xx_hal_tim.c ****   * @param  htim TIM Base handle
 264:./Drivers/STM32F1xx_HAL_Driver/Src/stm32f1xx_hal_tim.c ****   * @retval HAL status
 265:./Drivers/STM32F1xx_HAL_Driver/Src/stm32f1xx_hal_tim.c ****   */
 266:./Drivers/STM32F1xx_HAL_Driver/Src/stm32f1xx_hal_tim.c **** HAL_StatusTypeDef HAL_TIM_Base_Init(TIM_HandleTypeDef *htim)
 267:./Drivers/STM32F1xx_HAL_Driver/Src/stm32f1xx_hal_tim.c **** {
  27              		.loc 1 267 1
  28              		.cfi_startproc
  29              		@ args = 0, pretend = 0, frame = 8
  30              		@ frame_needed = 1, uses_anonymous_args = 0
  31 0000 80B5     		push	{r7, lr}
  32              		.cfi_def_cfa_offset 8
  33              		.cfi_offset 7, -8
  34              		.cfi_offset 14, -4
  35 0002 82B0     		sub	sp, sp, #8
  36              		.cfi_def_cfa_offset 16
  37 0004 00AF     		add	r7, sp, #0
  38              		.cfi_def_cfa_register 7
  39 0006 7860     		str	r0, [r7, #4]
 268:./Drivers/STM32F1xx_HAL_Driver/Src/stm32f1xx_hal_tim.c ****   /* Check the TIM handle allocation */
 269:./Drivers/STM32F1xx_HAL_Driver/Src/stm32f1xx_hal_tim.c ****   if (htim == NULL)
  40              		.loc 1 269 6
  41 0008 7B68     		ldr	r3, [r7, #4]
  42 000a 002B     		cmp	r3, #0
  43 000c 01D1     		bne	.L2
 270:./Drivers/STM32F1xx_HAL_Driver/Src/stm32f1xx_hal_tim.c ****   {
 271:./Drivers/STM32F1xx_HAL_Driver/Src/stm32f1xx_hal_tim.c ****     return HAL_ERROR;
  44              		.loc 1 271 12
  45 000e 0123     		movs	r3, #1
  46 0010 41E0     		b	.L3
  47              	.L2:
 272:./Drivers/STM32F1xx_HAL_Driver/Src/stm32f1xx_hal_tim.c ****   }
 273:./Drivers/STM32F1xx_HAL_Driver/Src/stm32f1xx_hal_tim.c **** 
 274:./Drivers/STM32F1xx_HAL_Driver/Src/stm32f1xx_hal_tim.c ****   /* Check the parameters */
 275:./Drivers/STM32F1xx_HAL_Driver/Src/stm32f1xx_hal_tim.c ****   assert_param(IS_TIM_INSTANCE(htim->Instance));
 276:./Drivers/STM32F1xx_HAL_Driver/Src/stm32f1xx_hal_tim.c ****   assert_param(IS_TIM_COUNTER_MODE(htim->Init.CounterMode));
 277:./Drivers/STM32F1xx_HAL_Driver/Src/stm32f1xx_hal_tim.c ****   assert_param(IS_TIM_CLOCKDIVISION_DIV(htim->Init.ClockDivision));
 278:./Drivers/STM32F1xx_HAL_Driver/Src/stm32f1xx_hal_tim.c ****   assert_param(IS_TIM_AUTORELOAD_PRELOAD(htim->Init.AutoReloadPreload));
 279:./Drivers/STM32F1xx_HAL_Driver/Src/stm32f1xx_hal_tim.c **** 
 280:./Drivers/STM32F1xx_HAL_Driver/Src/stm32f1xx_hal_tim.c ****   if (htim->State == HAL_TIM_STATE_RESET)
  48              		.loc 1 280 11
  49 0012 7B68     		ldr	r3, [r7, #4]
  50 0014 93F83D30 		ldrb	r3, [r3, #61]
  51 0018 DBB2     		uxtb	r3, r3
  52              		.loc 1 280 6
  53 001a 002B     		cmp	r3, #0
  54 001c 06D1     		bne	.L4
 281:./Drivers/STM32F1xx_HAL_Driver/Src/stm32f1xx_hal_tim.c ****   {
 282:./Drivers/STM32F1xx_HAL_Driver/Src/stm32f1xx_hal_tim.c ****     /* Allocate lock resource and initialize it */
 283:./Drivers/STM32F1xx_HAL_Driver/Src/stm32f1xx_hal_tim.c ****     htim->Lock = HAL_UNLOCKED;
  55              		.loc 1 283 16
  56 001e 7B68     		ldr	r3, [r7, #4]
  57 0020 0022     		movs	r2, #0
  58 0022 83F83C20 		strb	r2, [r3, #60]
 284:./Drivers/STM32F1xx_HAL_Driver/Src/stm32f1xx_hal_tim.c **** 
 285:./Drivers/STM32F1xx_HAL_Driver/Src/stm32f1xx_hal_tim.c **** #if (USE_HAL_TIM_REGISTER_CALLBACKS == 1)
ARM GAS  C:\Users\phucd\AppData\Local\Temp\ccc4tAyX.s 			page 7


 286:./Drivers/STM32F1xx_HAL_Driver/Src/stm32f1xx_hal_tim.c ****     /* Reset interrupt callbacks to legacy weak callbacks */
 287:./Drivers/STM32F1xx_HAL_Driver/Src/stm32f1xx_hal_tim.c ****     TIM_ResetCallback(htim);
 288:./Drivers/STM32F1xx_HAL_Driver/Src/stm32f1xx_hal_tim.c **** 
 289:./Drivers/STM32F1xx_HAL_Driver/Src/stm32f1xx_hal_tim.c ****     if (htim->Base_MspInitCallback == NULL)
 290:./Drivers/STM32F1xx_HAL_Driver/Src/stm32f1xx_hal_tim.c ****     {
 291:./Drivers/STM32F1xx_HAL_Driver/Src/stm32f1xx_hal_tim.c ****       htim->Base_MspInitCallback = HAL_TIM_Base_MspInit;
 292:./Drivers/STM32F1xx_HAL_Driver/Src/stm32f1xx_hal_tim.c ****     }
 293:./Drivers/STM32F1xx_HAL_Driver/Src/stm32f1xx_hal_tim.c ****     /* Init the low level hardware : GPIO, CLOCK, NVIC */
 294:./Drivers/STM32F1xx_HAL_Driver/Src/stm32f1xx_hal_tim.c ****     htim->Base_MspInitCallback(htim);
 295:./Drivers/STM32F1xx_HAL_Driver/Src/stm32f1xx_hal_tim.c **** #else
 296:./Drivers/STM32F1xx_HAL_Driver/Src/stm32f1xx_hal_tim.c ****     /* Init the low level hardware : GPIO, CLOCK, NVIC */
 297:./Drivers/STM32F1xx_HAL_Driver/Src/stm32f1xx_hal_tim.c ****     HAL_TIM_Base_MspInit(htim);
  59              		.loc 1 297 5
  60 0026 7868     		ldr	r0, [r7, #4]
  61 0028 FFF7FEFF 		bl	HAL_TIM_Base_MspInit
  62              	.L4:
 298:./Drivers/STM32F1xx_HAL_Driver/Src/stm32f1xx_hal_tim.c **** #endif /* USE_HAL_TIM_REGISTER_CALLBACKS */
 299:./Drivers/STM32F1xx_HAL_Driver/Src/stm32f1xx_hal_tim.c ****   }
 300:./Drivers/STM32F1xx_HAL_Driver/Src/stm32f1xx_hal_tim.c **** 
 301:./Drivers/STM32F1xx_HAL_Driver/Src/stm32f1xx_hal_tim.c ****   /* Set the TIM state */
 302:./Drivers/STM32F1xx_HAL_Driver/Src/stm32f1xx_hal_tim.c ****   htim->State = HAL_TIM_STATE_BUSY;
  63              		.loc 1 302 15
  64 002c 7B68     		ldr	r3, [r7, #4]
  65 002e 0222     		movs	r2, #2
  66 0030 83F83D20 		strb	r2, [r3, #61]
 303:./Drivers/STM32F1xx_HAL_Driver/Src/stm32f1xx_hal_tim.c **** 
 304:./Drivers/STM32F1xx_HAL_Driver/Src/stm32f1xx_hal_tim.c ****   /* Set the Time Base configuration */
 305:./Drivers/STM32F1xx_HAL_Driver/Src/stm32f1xx_hal_tim.c ****   TIM_Base_SetConfig(htim->Instance, &htim->Init);
  67              		.loc 1 305 3
  68 0034 7B68     		ldr	r3, [r7, #4]
  69 0036 1A68     		ldr	r2, [r3]
  70 0038 7B68     		ldr	r3, [r7, #4]
  71 003a 0433     		adds	r3, r3, #4
  72 003c 1946     		mov	r1, r3
  73 003e 1046     		mov	r0, r2
  74 0040 FFF7FEFF 		bl	TIM_Base_SetConfig
 306:./Drivers/STM32F1xx_HAL_Driver/Src/stm32f1xx_hal_tim.c **** 
 307:./Drivers/STM32F1xx_HAL_Driver/Src/stm32f1xx_hal_tim.c ****   /* Initialize the DMA burst operation state */
 308:./Drivers/STM32F1xx_HAL_Driver/Src/stm32f1xx_hal_tim.c ****   htim->DMABurstState = HAL_DMA_BURST_STATE_READY;
  75              		.loc 1 308 23
  76 0044 7B68     		ldr	r3, [r7, #4]
  77 0046 0122     		movs	r2, #1
  78 0048 83F84620 		strb	r2, [r3, #70]
 309:./Drivers/STM32F1xx_HAL_Driver/Src/stm32f1xx_hal_tim.c **** 
 310:./Drivers/STM32F1xx_HAL_Driver/Src/stm32f1xx_hal_tim.c ****   /* Initialize the TIM channels state */
 311:./Drivers/STM32F1xx_HAL_Driver/Src/stm32f1xx_hal_tim.c ****   TIM_CHANNEL_STATE_SET_ALL(htim, HAL_TIM_CHANNEL_STATE_READY);
  79              		.loc 1 311 3
  80 004c 7B68     		ldr	r3, [r7, #4]
  81 004e 0122     		movs	r2, #1
  82 0050 83F83E20 		strb	r2, [r3, #62]
  83 0054 7B68     		ldr	r3, [r7, #4]
  84 0056 0122     		movs	r2, #1
  85 0058 83F83F20 		strb	r2, [r3, #63]
  86 005c 7B68     		ldr	r3, [r7, #4]
  87 005e 0122     		movs	r2, #1
  88 0060 83F84020 		strb	r2, [r3, #64]
  89 0064 7B68     		ldr	r3, [r7, #4]
ARM GAS  C:\Users\phucd\AppData\Local\Temp\ccc4tAyX.s 			page 8


  90 0066 0122     		movs	r2, #1
  91 0068 83F84120 		strb	r2, [r3, #65]
 312:./Drivers/STM32F1xx_HAL_Driver/Src/stm32f1xx_hal_tim.c ****   TIM_CHANNEL_N_STATE_SET_ALL(htim, HAL_TIM_CHANNEL_STATE_READY);
  92              		.loc 1 312 3
  93 006c 7B68     		ldr	r3, [r7, #4]
  94 006e 0122     		movs	r2, #1
  95 0070 83F84220 		strb	r2, [r3, #66]
  96 0074 7B68     		ldr	r3, [r7, #4]
  97 0076 0122     		movs	r2, #1
  98 0078 83F84320 		strb	r2, [r3, #67]
  99 007c 7B68     		ldr	r3, [r7, #4]
 100 007e 0122     		movs	r2, #1
 101 0080 83F84420 		strb	r2, [r3, #68]
 102 0084 7B68     		ldr	r3, [r7, #4]
 103 0086 0122     		movs	r2, #1
 104 0088 83F84520 		strb	r2, [r3, #69]
 313:./Drivers/STM32F1xx_HAL_Driver/Src/stm32f1xx_hal_tim.c **** 
 314:./Drivers/STM32F1xx_HAL_Driver/Src/stm32f1xx_hal_tim.c ****   /* Initialize the TIM state*/
 315:./Drivers/STM32F1xx_HAL_Driver/Src/stm32f1xx_hal_tim.c ****   htim->State = HAL_TIM_STATE_READY;
 105              		.loc 1 315 15
 106 008c 7B68     		ldr	r3, [r7, #4]
 107 008e 0122     		movs	r2, #1
 108 0090 83F83D20 		strb	r2, [r3, #61]
 316:./Drivers/STM32F1xx_HAL_Driver/Src/stm32f1xx_hal_tim.c **** 
 317:./Drivers/STM32F1xx_HAL_Driver/Src/stm32f1xx_hal_tim.c ****   return HAL_OK;
 109              		.loc 1 317 10
 110 0094 0023     		movs	r3, #0
 111              	.L3:
 318:./Drivers/STM32F1xx_HAL_Driver/Src/stm32f1xx_hal_tim.c **** }
 112              		.loc 1 318 1
 113 0096 1846     		mov	r0, r3
 114 0098 0837     		adds	r7, r7, #8
 115              		.cfi_def_cfa_offset 8
 116 009a BD46     		mov	sp, r7
 117              		.cfi_def_cfa_register 13
 118              		@ sp needed
 119 009c 80BD     		pop	{r7, pc}
 120              		.cfi_endproc
 121              	.LFE65:
 123              		.section	.text.HAL_TIM_Base_DeInit,"ax",%progbits
 124              		.align	1
 125              		.global	HAL_TIM_Base_DeInit
 126              		.syntax unified
 127              		.thumb
 128              		.thumb_func
 129              		.fpu softvfp
 131              	HAL_TIM_Base_DeInit:
 132              	.LFB66:
 319:./Drivers/STM32F1xx_HAL_Driver/Src/stm32f1xx_hal_tim.c **** 
 320:./Drivers/STM32F1xx_HAL_Driver/Src/stm32f1xx_hal_tim.c **** /**
 321:./Drivers/STM32F1xx_HAL_Driver/Src/stm32f1xx_hal_tim.c ****   * @brief  DeInitializes the TIM Base peripheral
 322:./Drivers/STM32F1xx_HAL_Driver/Src/stm32f1xx_hal_tim.c ****   * @param  htim TIM Base handle
 323:./Drivers/STM32F1xx_HAL_Driver/Src/stm32f1xx_hal_tim.c ****   * @retval HAL status
 324:./Drivers/STM32F1xx_HAL_Driver/Src/stm32f1xx_hal_tim.c ****   */
 325:./Drivers/STM32F1xx_HAL_Driver/Src/stm32f1xx_hal_tim.c **** HAL_StatusTypeDef HAL_TIM_Base_DeInit(TIM_HandleTypeDef *htim)
 326:./Drivers/STM32F1xx_HAL_Driver/Src/stm32f1xx_hal_tim.c **** {
 133              		.loc 1 326 1
ARM GAS  C:\Users\phucd\AppData\Local\Temp\ccc4tAyX.s 			page 9


 134              		.cfi_startproc
 135              		@ args = 0, pretend = 0, frame = 8
 136              		@ frame_needed = 1, uses_anonymous_args = 0
 137 0000 80B5     		push	{r7, lr}
 138              		.cfi_def_cfa_offset 8
 139              		.cfi_offset 7, -8
 140              		.cfi_offset 14, -4
 141 0002 82B0     		sub	sp, sp, #8
 142              		.cfi_def_cfa_offset 16
 143 0004 00AF     		add	r7, sp, #0
 144              		.cfi_def_cfa_register 7
 145 0006 7860     		str	r0, [r7, #4]
 327:./Drivers/STM32F1xx_HAL_Driver/Src/stm32f1xx_hal_tim.c ****   /* Check the parameters */
 328:./Drivers/STM32F1xx_HAL_Driver/Src/stm32f1xx_hal_tim.c ****   assert_param(IS_TIM_INSTANCE(htim->Instance));
 329:./Drivers/STM32F1xx_HAL_Driver/Src/stm32f1xx_hal_tim.c **** 
 330:./Drivers/STM32F1xx_HAL_Driver/Src/stm32f1xx_hal_tim.c ****   htim->State = HAL_TIM_STATE_BUSY;
 146              		.loc 1 330 15
 147 0008 7B68     		ldr	r3, [r7, #4]
 148 000a 0222     		movs	r2, #2
 149 000c 83F83D20 		strb	r2, [r3, #61]
 331:./Drivers/STM32F1xx_HAL_Driver/Src/stm32f1xx_hal_tim.c **** 
 332:./Drivers/STM32F1xx_HAL_Driver/Src/stm32f1xx_hal_tim.c ****   /* Disable the TIM Peripheral Clock */
 333:./Drivers/STM32F1xx_HAL_Driver/Src/stm32f1xx_hal_tim.c ****   __HAL_TIM_DISABLE(htim);
 150              		.loc 1 333 3
 151 0010 7B68     		ldr	r3, [r7, #4]
 152 0012 1B68     		ldr	r3, [r3]
 153 0014 1A6A     		ldr	r2, [r3, #32]
 154 0016 41F21113 		movw	r3, #4369
 155 001a 1340     		ands	r3, r3, r2
 156 001c 002B     		cmp	r3, #0
 157 001e 0FD1     		bne	.L6
 158              		.loc 1 333 3 is_stmt 0 discriminator 1
 159 0020 7B68     		ldr	r3, [r7, #4]
 160 0022 1B68     		ldr	r3, [r3]
 161 0024 1A6A     		ldr	r2, [r3, #32]
 162 0026 40F24443 		movw	r3, #1092
 163 002a 1340     		ands	r3, r3, r2
 164 002c 002B     		cmp	r3, #0
 165 002e 07D1     		bne	.L6
 166              		.loc 1 333 3 discriminator 2
 167 0030 7B68     		ldr	r3, [r7, #4]
 168 0032 1B68     		ldr	r3, [r3]
 169 0034 1A68     		ldr	r2, [r3]
 170 0036 7B68     		ldr	r3, [r7, #4]
 171 0038 1B68     		ldr	r3, [r3]
 172 003a 22F00102 		bic	r2, r2, #1
 173 003e 1A60     		str	r2, [r3]
 174              	.L6:
 334:./Drivers/STM32F1xx_HAL_Driver/Src/stm32f1xx_hal_tim.c **** 
 335:./Drivers/STM32F1xx_HAL_Driver/Src/stm32f1xx_hal_tim.c **** #if (USE_HAL_TIM_REGISTER_CALLBACKS == 1)
 336:./Drivers/STM32F1xx_HAL_Driver/Src/stm32f1xx_hal_tim.c ****   if (htim->Base_MspDeInitCallback == NULL)
 337:./Drivers/STM32F1xx_HAL_Driver/Src/stm32f1xx_hal_tim.c ****   {
 338:./Drivers/STM32F1xx_HAL_Driver/Src/stm32f1xx_hal_tim.c ****     htim->Base_MspDeInitCallback = HAL_TIM_Base_MspDeInit;
 339:./Drivers/STM32F1xx_HAL_Driver/Src/stm32f1xx_hal_tim.c ****   }
 340:./Drivers/STM32F1xx_HAL_Driver/Src/stm32f1xx_hal_tim.c ****   /* DeInit the low level hardware */
 341:./Drivers/STM32F1xx_HAL_Driver/Src/stm32f1xx_hal_tim.c ****   htim->Base_MspDeInitCallback(htim);
 342:./Drivers/STM32F1xx_HAL_Driver/Src/stm32f1xx_hal_tim.c **** #else
ARM GAS  C:\Users\phucd\AppData\Local\Temp\ccc4tAyX.s 			page 10


 343:./Drivers/STM32F1xx_HAL_Driver/Src/stm32f1xx_hal_tim.c ****   /* DeInit the low level hardware: GPIO, CLOCK, NVIC */
 344:./Drivers/STM32F1xx_HAL_Driver/Src/stm32f1xx_hal_tim.c ****   HAL_TIM_Base_MspDeInit(htim);
 175              		.loc 1 344 3 is_stmt 1
 176 0040 7868     		ldr	r0, [r7, #4]
 177 0042 FFF7FEFF 		bl	HAL_TIM_Base_MspDeInit
 345:./Drivers/STM32F1xx_HAL_Driver/Src/stm32f1xx_hal_tim.c **** #endif /* USE_HAL_TIM_REGISTER_CALLBACKS */
 346:./Drivers/STM32F1xx_HAL_Driver/Src/stm32f1xx_hal_tim.c **** 
 347:./Drivers/STM32F1xx_HAL_Driver/Src/stm32f1xx_hal_tim.c ****   /* Change the DMA burst operation state */
 348:./Drivers/STM32F1xx_HAL_Driver/Src/stm32f1xx_hal_tim.c ****   htim->DMABurstState = HAL_DMA_BURST_STATE_RESET;
 178              		.loc 1 348 23
 179 0046 7B68     		ldr	r3, [r7, #4]
 180 0048 0022     		movs	r2, #0
 181 004a 83F84620 		strb	r2, [r3, #70]
 349:./Drivers/STM32F1xx_HAL_Driver/Src/stm32f1xx_hal_tim.c **** 
 350:./Drivers/STM32F1xx_HAL_Driver/Src/stm32f1xx_hal_tim.c ****   /* Change the TIM channels state */
 351:./Drivers/STM32F1xx_HAL_Driver/Src/stm32f1xx_hal_tim.c ****   TIM_CHANNEL_STATE_SET_ALL(htim, HAL_TIM_CHANNEL_STATE_RESET);
 182              		.loc 1 351 3
 183 004e 7B68     		ldr	r3, [r7, #4]
 184 0050 0022     		movs	r2, #0
 185 0052 83F83E20 		strb	r2, [r3, #62]
 186 0056 7B68     		ldr	r3, [r7, #4]
 187 0058 0022     		movs	r2, #0
 188 005a 83F83F20 		strb	r2, [r3, #63]
 189 005e 7B68     		ldr	r3, [r7, #4]
 190 0060 0022     		movs	r2, #0
 191 0062 83F84020 		strb	r2, [r3, #64]
 192 0066 7B68     		ldr	r3, [r7, #4]
 193 0068 0022     		movs	r2, #0
 194 006a 83F84120 		strb	r2, [r3, #65]
 352:./Drivers/STM32F1xx_HAL_Driver/Src/stm32f1xx_hal_tim.c ****   TIM_CHANNEL_N_STATE_SET_ALL(htim, HAL_TIM_CHANNEL_STATE_RESET);
 195              		.loc 1 352 3
 196 006e 7B68     		ldr	r3, [r7, #4]
 197 0070 0022     		movs	r2, #0
 198 0072 83F84220 		strb	r2, [r3, #66]
 199 0076 7B68     		ldr	r3, [r7, #4]
 200 0078 0022     		movs	r2, #0
 201 007a 83F84320 		strb	r2, [r3, #67]
 202 007e 7B68     		ldr	r3, [r7, #4]
 203 0080 0022     		movs	r2, #0
 204 0082 83F84420 		strb	r2, [r3, #68]
 205 0086 7B68     		ldr	r3, [r7, #4]
 206 0088 0022     		movs	r2, #0
 207 008a 83F84520 		strb	r2, [r3, #69]
 353:./Drivers/STM32F1xx_HAL_Driver/Src/stm32f1xx_hal_tim.c **** 
 354:./Drivers/STM32F1xx_HAL_Driver/Src/stm32f1xx_hal_tim.c ****   /* Change TIM state */
 355:./Drivers/STM32F1xx_HAL_Driver/Src/stm32f1xx_hal_tim.c ****   htim->State = HAL_TIM_STATE_RESET;
 208              		.loc 1 355 15
 209 008e 7B68     		ldr	r3, [r7, #4]
 210 0090 0022     		movs	r2, #0
 211 0092 83F83D20 		strb	r2, [r3, #61]
 356:./Drivers/STM32F1xx_HAL_Driver/Src/stm32f1xx_hal_tim.c **** 
 357:./Drivers/STM32F1xx_HAL_Driver/Src/stm32f1xx_hal_tim.c ****   /* Release Lock */
 358:./Drivers/STM32F1xx_HAL_Driver/Src/stm32f1xx_hal_tim.c ****   __HAL_UNLOCK(htim);
 212              		.loc 1 358 3
 213 0096 7B68     		ldr	r3, [r7, #4]
 214 0098 0022     		movs	r2, #0
 215 009a 83F83C20 		strb	r2, [r3, #60]
ARM GAS  C:\Users\phucd\AppData\Local\Temp\ccc4tAyX.s 			page 11


 359:./Drivers/STM32F1xx_HAL_Driver/Src/stm32f1xx_hal_tim.c **** 
 360:./Drivers/STM32F1xx_HAL_Driver/Src/stm32f1xx_hal_tim.c ****   return HAL_OK;
 216              		.loc 1 360 10
 217 009e 0023     		movs	r3, #0
 361:./Drivers/STM32F1xx_HAL_Driver/Src/stm32f1xx_hal_tim.c **** }
 218              		.loc 1 361 1
 219 00a0 1846     		mov	r0, r3
 220 00a2 0837     		adds	r7, r7, #8
 221              		.cfi_def_cfa_offset 8
 222 00a4 BD46     		mov	sp, r7
 223              		.cfi_def_cfa_register 13
 224              		@ sp needed
 225 00a6 80BD     		pop	{r7, pc}
 226              		.cfi_endproc
 227              	.LFE66:
 229              		.section	.text.HAL_TIM_Base_MspInit,"ax",%progbits
 230              		.align	1
 231              		.weak	HAL_TIM_Base_MspInit
 232              		.syntax unified
 233              		.thumb
 234              		.thumb_func
 235              		.fpu softvfp
 237              	HAL_TIM_Base_MspInit:
 238              	.LFB67:
 362:./Drivers/STM32F1xx_HAL_Driver/Src/stm32f1xx_hal_tim.c **** 
 363:./Drivers/STM32F1xx_HAL_Driver/Src/stm32f1xx_hal_tim.c **** /**
 364:./Drivers/STM32F1xx_HAL_Driver/Src/stm32f1xx_hal_tim.c ****   * @brief  Initializes the TIM Base MSP.
 365:./Drivers/STM32F1xx_HAL_Driver/Src/stm32f1xx_hal_tim.c ****   * @param  htim TIM Base handle
 366:./Drivers/STM32F1xx_HAL_Driver/Src/stm32f1xx_hal_tim.c ****   * @retval None
 367:./Drivers/STM32F1xx_HAL_Driver/Src/stm32f1xx_hal_tim.c ****   */
 368:./Drivers/STM32F1xx_HAL_Driver/Src/stm32f1xx_hal_tim.c **** __weak void HAL_TIM_Base_MspInit(TIM_HandleTypeDef *htim)
 369:./Drivers/STM32F1xx_HAL_Driver/Src/stm32f1xx_hal_tim.c **** {
 239              		.loc 1 369 1
 240              		.cfi_startproc
 241              		@ args = 0, pretend = 0, frame = 8
 242              		@ frame_needed = 1, uses_anonymous_args = 0
 243              		@ link register save eliminated.
 244 0000 80B4     		push	{r7}
 245              		.cfi_def_cfa_offset 4
 246              		.cfi_offset 7, -4
 247 0002 83B0     		sub	sp, sp, #12
 248              		.cfi_def_cfa_offset 16
 249 0004 00AF     		add	r7, sp, #0
 250              		.cfi_def_cfa_register 7
 251 0006 7860     		str	r0, [r7, #4]
 370:./Drivers/STM32F1xx_HAL_Driver/Src/stm32f1xx_hal_tim.c ****   /* Prevent unused argument(s) compilation warning */
 371:./Drivers/STM32F1xx_HAL_Driver/Src/stm32f1xx_hal_tim.c ****   UNUSED(htim);
 372:./Drivers/STM32F1xx_HAL_Driver/Src/stm32f1xx_hal_tim.c **** 
 373:./Drivers/STM32F1xx_HAL_Driver/Src/stm32f1xx_hal_tim.c ****   /* NOTE : This function should not be modified, when the callback is needed,
 374:./Drivers/STM32F1xx_HAL_Driver/Src/stm32f1xx_hal_tim.c ****             the HAL_TIM_Base_MspInit could be implemented in the user file
 375:./Drivers/STM32F1xx_HAL_Driver/Src/stm32f1xx_hal_tim.c ****    */
 376:./Drivers/STM32F1xx_HAL_Driver/Src/stm32f1xx_hal_tim.c **** }
 252              		.loc 1 376 1
 253 0008 00BF     		nop
 254 000a 0C37     		adds	r7, r7, #12
 255              		.cfi_def_cfa_offset 4
 256 000c BD46     		mov	sp, r7
ARM GAS  C:\Users\phucd\AppData\Local\Temp\ccc4tAyX.s 			page 12


 257              		.cfi_def_cfa_register 13
 258              		@ sp needed
 259 000e 80BC     		pop	{r7}
 260              		.cfi_restore 7
 261              		.cfi_def_cfa_offset 0
 262 0010 7047     		bx	lr
 263              		.cfi_endproc
 264              	.LFE67:
 266              		.section	.text.HAL_TIM_Base_MspDeInit,"ax",%progbits
 267              		.align	1
 268              		.weak	HAL_TIM_Base_MspDeInit
 269              		.syntax unified
 270              		.thumb
 271              		.thumb_func
 272              		.fpu softvfp
 274              	HAL_TIM_Base_MspDeInit:
 275              	.LFB68:
 377:./Drivers/STM32F1xx_HAL_Driver/Src/stm32f1xx_hal_tim.c **** 
 378:./Drivers/STM32F1xx_HAL_Driver/Src/stm32f1xx_hal_tim.c **** /**
 379:./Drivers/STM32F1xx_HAL_Driver/Src/stm32f1xx_hal_tim.c ****   * @brief  DeInitializes TIM Base MSP.
 380:./Drivers/STM32F1xx_HAL_Driver/Src/stm32f1xx_hal_tim.c ****   * @param  htim TIM Base handle
 381:./Drivers/STM32F1xx_HAL_Driver/Src/stm32f1xx_hal_tim.c ****   * @retval None
 382:./Drivers/STM32F1xx_HAL_Driver/Src/stm32f1xx_hal_tim.c ****   */
 383:./Drivers/STM32F1xx_HAL_Driver/Src/stm32f1xx_hal_tim.c **** __weak void HAL_TIM_Base_MspDeInit(TIM_HandleTypeDef *htim)
 384:./Drivers/STM32F1xx_HAL_Driver/Src/stm32f1xx_hal_tim.c **** {
 276              		.loc 1 384 1
 277              		.cfi_startproc
 278              		@ args = 0, pretend = 0, frame = 8
 279              		@ frame_needed = 1, uses_anonymous_args = 0
 280              		@ link register save eliminated.
 281 0000 80B4     		push	{r7}
 282              		.cfi_def_cfa_offset 4
 283              		.cfi_offset 7, -4
 284 0002 83B0     		sub	sp, sp, #12
 285              		.cfi_def_cfa_offset 16
 286 0004 00AF     		add	r7, sp, #0
 287              		.cfi_def_cfa_register 7
 288 0006 7860     		str	r0, [r7, #4]
 385:./Drivers/STM32F1xx_HAL_Driver/Src/stm32f1xx_hal_tim.c ****   /* Prevent unused argument(s) compilation warning */
 386:./Drivers/STM32F1xx_HAL_Driver/Src/stm32f1xx_hal_tim.c ****   UNUSED(htim);
 387:./Drivers/STM32F1xx_HAL_Driver/Src/stm32f1xx_hal_tim.c **** 
 388:./Drivers/STM32F1xx_HAL_Driver/Src/stm32f1xx_hal_tim.c ****   /* NOTE : This function should not be modified, when the callback is needed,
 389:./Drivers/STM32F1xx_HAL_Driver/Src/stm32f1xx_hal_tim.c ****             the HAL_TIM_Base_MspDeInit could be implemented in the user file
 390:./Drivers/STM32F1xx_HAL_Driver/Src/stm32f1xx_hal_tim.c ****    */
 391:./Drivers/STM32F1xx_HAL_Driver/Src/stm32f1xx_hal_tim.c **** }
 289              		.loc 1 391 1
 290 0008 00BF     		nop
 291 000a 0C37     		adds	r7, r7, #12
 292              		.cfi_def_cfa_offset 4
 293 000c BD46     		mov	sp, r7
 294              		.cfi_def_cfa_register 13
 295              		@ sp needed
 296 000e 80BC     		pop	{r7}
 297              		.cfi_restore 7
 298              		.cfi_def_cfa_offset 0
 299 0010 7047     		bx	lr
 300              		.cfi_endproc
ARM GAS  C:\Users\phucd\AppData\Local\Temp\ccc4tAyX.s 			page 13


 301              	.LFE68:
 303              		.section	.text.HAL_TIM_Base_Start,"ax",%progbits
 304              		.align	1
 305              		.global	HAL_TIM_Base_Start
 306              		.syntax unified
 307              		.thumb
 308              		.thumb_func
 309              		.fpu softvfp
 311              	HAL_TIM_Base_Start:
 312              	.LFB69:
 392:./Drivers/STM32F1xx_HAL_Driver/Src/stm32f1xx_hal_tim.c **** 
 393:./Drivers/STM32F1xx_HAL_Driver/Src/stm32f1xx_hal_tim.c **** 
 394:./Drivers/STM32F1xx_HAL_Driver/Src/stm32f1xx_hal_tim.c **** /**
 395:./Drivers/STM32F1xx_HAL_Driver/Src/stm32f1xx_hal_tim.c ****   * @brief  Starts the TIM Base generation.
 396:./Drivers/STM32F1xx_HAL_Driver/Src/stm32f1xx_hal_tim.c ****   * @param  htim TIM Base handle
 397:./Drivers/STM32F1xx_HAL_Driver/Src/stm32f1xx_hal_tim.c ****   * @retval HAL status
 398:./Drivers/STM32F1xx_HAL_Driver/Src/stm32f1xx_hal_tim.c ****   */
 399:./Drivers/STM32F1xx_HAL_Driver/Src/stm32f1xx_hal_tim.c **** HAL_StatusTypeDef HAL_TIM_Base_Start(TIM_HandleTypeDef *htim)
 400:./Drivers/STM32F1xx_HAL_Driver/Src/stm32f1xx_hal_tim.c **** {
 313              		.loc 1 400 1
 314              		.cfi_startproc
 315              		@ args = 0, pretend = 0, frame = 16
 316              		@ frame_needed = 1, uses_anonymous_args = 0
 317              		@ link register save eliminated.
 318 0000 80B4     		push	{r7}
 319              		.cfi_def_cfa_offset 4
 320              		.cfi_offset 7, -4
 321 0002 85B0     		sub	sp, sp, #20
 322              		.cfi_def_cfa_offset 24
 323 0004 00AF     		add	r7, sp, #0
 324              		.cfi_def_cfa_register 7
 325 0006 7860     		str	r0, [r7, #4]
 401:./Drivers/STM32F1xx_HAL_Driver/Src/stm32f1xx_hal_tim.c ****   uint32_t tmpsmcr;
 402:./Drivers/STM32F1xx_HAL_Driver/Src/stm32f1xx_hal_tim.c **** 
 403:./Drivers/STM32F1xx_HAL_Driver/Src/stm32f1xx_hal_tim.c ****   /* Check the parameters */
 404:./Drivers/STM32F1xx_HAL_Driver/Src/stm32f1xx_hal_tim.c ****   assert_param(IS_TIM_INSTANCE(htim->Instance));
 405:./Drivers/STM32F1xx_HAL_Driver/Src/stm32f1xx_hal_tim.c **** 
 406:./Drivers/STM32F1xx_HAL_Driver/Src/stm32f1xx_hal_tim.c ****   /* Check the TIM state */
 407:./Drivers/STM32F1xx_HAL_Driver/Src/stm32f1xx_hal_tim.c ****   if (htim->State != HAL_TIM_STATE_READY)
 326              		.loc 1 407 11
 327 0008 7B68     		ldr	r3, [r7, #4]
 328 000a 93F83D30 		ldrb	r3, [r3, #61]
 329 000e DBB2     		uxtb	r3, r3
 330              		.loc 1 407 6
 331 0010 012B     		cmp	r3, #1
 332 0012 01D0     		beq	.L11
 408:./Drivers/STM32F1xx_HAL_Driver/Src/stm32f1xx_hal_tim.c ****   {
 409:./Drivers/STM32F1xx_HAL_Driver/Src/stm32f1xx_hal_tim.c ****     return HAL_ERROR;
 333              		.loc 1 409 12
 334 0014 0123     		movs	r3, #1
 335 0016 32E0     		b	.L12
 336              	.L11:
 410:./Drivers/STM32F1xx_HAL_Driver/Src/stm32f1xx_hal_tim.c ****   }
 411:./Drivers/STM32F1xx_HAL_Driver/Src/stm32f1xx_hal_tim.c **** 
 412:./Drivers/STM32F1xx_HAL_Driver/Src/stm32f1xx_hal_tim.c ****   /* Set the TIM state */
 413:./Drivers/STM32F1xx_HAL_Driver/Src/stm32f1xx_hal_tim.c ****   htim->State = HAL_TIM_STATE_BUSY;
 337              		.loc 1 413 15
ARM GAS  C:\Users\phucd\AppData\Local\Temp\ccc4tAyX.s 			page 14


 338 0018 7B68     		ldr	r3, [r7, #4]
 339 001a 0222     		movs	r2, #2
 340 001c 83F83D20 		strb	r2, [r3, #61]
 414:./Drivers/STM32F1xx_HAL_Driver/Src/stm32f1xx_hal_tim.c **** 
 415:./Drivers/STM32F1xx_HAL_Driver/Src/stm32f1xx_hal_tim.c ****   /* Enable the Peripheral, except in trigger mode where enable is automatically done with trigger 
 416:./Drivers/STM32F1xx_HAL_Driver/Src/stm32f1xx_hal_tim.c ****   if (IS_TIM_SLAVE_INSTANCE(htim->Instance))
 341              		.loc 1 416 7
 342 0020 7B68     		ldr	r3, [r7, #4]
 343 0022 1B68     		ldr	r3, [r3]
 344              		.loc 1 416 6
 345 0024 184A     		ldr	r2, .L17
 346 0026 9342     		cmp	r3, r2
 347 0028 0ED0     		beq	.L13
 348              		.loc 1 416 7 discriminator 1
 349 002a 7B68     		ldr	r3, [r7, #4]
 350 002c 1B68     		ldr	r3, [r3]
 351 002e B3F1804F 		cmp	r3, #1073741824
 352 0032 09D0     		beq	.L13
 353              		.loc 1 416 7 is_stmt 0 discriminator 2
 354 0034 7B68     		ldr	r3, [r7, #4]
 355 0036 1B68     		ldr	r3, [r3]
 356 0038 144A     		ldr	r2, .L17+4
 357 003a 9342     		cmp	r3, r2
 358 003c 04D0     		beq	.L13
 359              		.loc 1 416 7 discriminator 3
 360 003e 7B68     		ldr	r3, [r7, #4]
 361 0040 1B68     		ldr	r3, [r3]
 362 0042 134A     		ldr	r2, .L17+8
 363 0044 9342     		cmp	r3, r2
 364 0046 11D1     		bne	.L14
 365              	.L13:
 417:./Drivers/STM32F1xx_HAL_Driver/Src/stm32f1xx_hal_tim.c ****   {
 418:./Drivers/STM32F1xx_HAL_Driver/Src/stm32f1xx_hal_tim.c ****     tmpsmcr = htim->Instance->SMCR & TIM_SMCR_SMS;
 366              		.loc 1 418 19 is_stmt 1
 367 0048 7B68     		ldr	r3, [r7, #4]
 368 004a 1B68     		ldr	r3, [r3]
 369              		.loc 1 418 29
 370 004c 9B68     		ldr	r3, [r3, #8]
 371              		.loc 1 418 13
 372 004e 03F00703 		and	r3, r3, #7
 373 0052 FB60     		str	r3, [r7, #12]
 419:./Drivers/STM32F1xx_HAL_Driver/Src/stm32f1xx_hal_tim.c ****     if (!IS_TIM_SLAVEMODE_TRIGGER_ENABLED(tmpsmcr))
 374              		.loc 1 419 8
 375 0054 FB68     		ldr	r3, [r7, #12]
 376 0056 062B     		cmp	r3, #6
 377 0058 10D0     		beq	.L16
 420:./Drivers/STM32F1xx_HAL_Driver/Src/stm32f1xx_hal_tim.c ****     {
 421:./Drivers/STM32F1xx_HAL_Driver/Src/stm32f1xx_hal_tim.c ****       __HAL_TIM_ENABLE(htim);
 378              		.loc 1 421 7
 379 005a 7B68     		ldr	r3, [r7, #4]
 380 005c 1B68     		ldr	r3, [r3]
 381 005e 1A68     		ldr	r2, [r3]
 382 0060 7B68     		ldr	r3, [r7, #4]
 383 0062 1B68     		ldr	r3, [r3]
 384 0064 42F00102 		orr	r2, r2, #1
 385 0068 1A60     		str	r2, [r3]
 419:./Drivers/STM32F1xx_HAL_Driver/Src/stm32f1xx_hal_tim.c ****     if (!IS_TIM_SLAVEMODE_TRIGGER_ENABLED(tmpsmcr))
ARM GAS  C:\Users\phucd\AppData\Local\Temp\ccc4tAyX.s 			page 15


 386              		.loc 1 419 8
 387 006a 07E0     		b	.L16
 388              	.L14:
 422:./Drivers/STM32F1xx_HAL_Driver/Src/stm32f1xx_hal_tim.c ****     }
 423:./Drivers/STM32F1xx_HAL_Driver/Src/stm32f1xx_hal_tim.c ****   }
 424:./Drivers/STM32F1xx_HAL_Driver/Src/stm32f1xx_hal_tim.c ****   else
 425:./Drivers/STM32F1xx_HAL_Driver/Src/stm32f1xx_hal_tim.c ****   {
 426:./Drivers/STM32F1xx_HAL_Driver/Src/stm32f1xx_hal_tim.c ****     __HAL_TIM_ENABLE(htim);
 389              		.loc 1 426 5
 390 006c 7B68     		ldr	r3, [r7, #4]
 391 006e 1B68     		ldr	r3, [r3]
 392 0070 1A68     		ldr	r2, [r3]
 393 0072 7B68     		ldr	r3, [r7, #4]
 394 0074 1B68     		ldr	r3, [r3]
 395 0076 42F00102 		orr	r2, r2, #1
 396 007a 1A60     		str	r2, [r3]
 397              	.L16:
 427:./Drivers/STM32F1xx_HAL_Driver/Src/stm32f1xx_hal_tim.c ****   }
 428:./Drivers/STM32F1xx_HAL_Driver/Src/stm32f1xx_hal_tim.c **** 
 429:./Drivers/STM32F1xx_HAL_Driver/Src/stm32f1xx_hal_tim.c ****   /* Return function status */
 430:./Drivers/STM32F1xx_HAL_Driver/Src/stm32f1xx_hal_tim.c ****   return HAL_OK;
 398              		.loc 1 430 10
 399 007c 0023     		movs	r3, #0
 400              	.L12:
 431:./Drivers/STM32F1xx_HAL_Driver/Src/stm32f1xx_hal_tim.c **** }
 401              		.loc 1 431 1
 402 007e 1846     		mov	r0, r3
 403 0080 1437     		adds	r7, r7, #20
 404              		.cfi_def_cfa_offset 4
 405 0082 BD46     		mov	sp, r7
 406              		.cfi_def_cfa_register 13
 407              		@ sp needed
 408 0084 80BC     		pop	{r7}
 409              		.cfi_restore 7
 410              		.cfi_def_cfa_offset 0
 411 0086 7047     		bx	lr
 412              	.L18:
 413              		.align	2
 414              	.L17:
 415 0088 002C0140 		.word	1073818624
 416 008c 00040040 		.word	1073742848
 417 0090 00080040 		.word	1073743872
 418              		.cfi_endproc
 419              	.LFE69:
 421              		.section	.text.HAL_TIM_Base_Stop,"ax",%progbits
 422              		.align	1
 423              		.global	HAL_TIM_Base_Stop
 424              		.syntax unified
 425              		.thumb
 426              		.thumb_func
 427              		.fpu softvfp
 429              	HAL_TIM_Base_Stop:
 430              	.LFB70:
 432:./Drivers/STM32F1xx_HAL_Driver/Src/stm32f1xx_hal_tim.c **** 
 433:./Drivers/STM32F1xx_HAL_Driver/Src/stm32f1xx_hal_tim.c **** /**
 434:./Drivers/STM32F1xx_HAL_Driver/Src/stm32f1xx_hal_tim.c ****   * @brief  Stops the TIM Base generation.
 435:./Drivers/STM32F1xx_HAL_Driver/Src/stm32f1xx_hal_tim.c ****   * @param  htim TIM Base handle
ARM GAS  C:\Users\phucd\AppData\Local\Temp\ccc4tAyX.s 			page 16


 436:./Drivers/STM32F1xx_HAL_Driver/Src/stm32f1xx_hal_tim.c ****   * @retval HAL status
 437:./Drivers/STM32F1xx_HAL_Driver/Src/stm32f1xx_hal_tim.c ****   */
 438:./Drivers/STM32F1xx_HAL_Driver/Src/stm32f1xx_hal_tim.c **** HAL_StatusTypeDef HAL_TIM_Base_Stop(TIM_HandleTypeDef *htim)
 439:./Drivers/STM32F1xx_HAL_Driver/Src/stm32f1xx_hal_tim.c **** {
 431              		.loc 1 439 1
 432              		.cfi_startproc
 433              		@ args = 0, pretend = 0, frame = 8
 434              		@ frame_needed = 1, uses_anonymous_args = 0
 435              		@ link register save eliminated.
 436 0000 80B4     		push	{r7}
 437              		.cfi_def_cfa_offset 4
 438              		.cfi_offset 7, -4
 439 0002 83B0     		sub	sp, sp, #12
 440              		.cfi_def_cfa_offset 16
 441 0004 00AF     		add	r7, sp, #0
 442              		.cfi_def_cfa_register 7
 443 0006 7860     		str	r0, [r7, #4]
 440:./Drivers/STM32F1xx_HAL_Driver/Src/stm32f1xx_hal_tim.c ****   /* Check the parameters */
 441:./Drivers/STM32F1xx_HAL_Driver/Src/stm32f1xx_hal_tim.c ****   assert_param(IS_TIM_INSTANCE(htim->Instance));
 442:./Drivers/STM32F1xx_HAL_Driver/Src/stm32f1xx_hal_tim.c **** 
 443:./Drivers/STM32F1xx_HAL_Driver/Src/stm32f1xx_hal_tim.c ****   /* Disable the Peripheral */
 444:./Drivers/STM32F1xx_HAL_Driver/Src/stm32f1xx_hal_tim.c ****   __HAL_TIM_DISABLE(htim);
 444              		.loc 1 444 3
 445 0008 7B68     		ldr	r3, [r7, #4]
 446 000a 1B68     		ldr	r3, [r3]
 447 000c 1A6A     		ldr	r2, [r3, #32]
 448 000e 41F21113 		movw	r3, #4369
 449 0012 1340     		ands	r3, r3, r2
 450 0014 002B     		cmp	r3, #0
 451 0016 0FD1     		bne	.L20
 452              		.loc 1 444 3 is_stmt 0 discriminator 1
 453 0018 7B68     		ldr	r3, [r7, #4]
 454 001a 1B68     		ldr	r3, [r3]
 455 001c 1A6A     		ldr	r2, [r3, #32]
 456 001e 40F24443 		movw	r3, #1092
 457 0022 1340     		ands	r3, r3, r2
 458 0024 002B     		cmp	r3, #0
 459 0026 07D1     		bne	.L20
 460              		.loc 1 444 3 discriminator 2
 461 0028 7B68     		ldr	r3, [r7, #4]
 462 002a 1B68     		ldr	r3, [r3]
 463 002c 1A68     		ldr	r2, [r3]
 464 002e 7B68     		ldr	r3, [r7, #4]
 465 0030 1B68     		ldr	r3, [r3]
 466 0032 22F00102 		bic	r2, r2, #1
 467 0036 1A60     		str	r2, [r3]
 468              	.L20:
 445:./Drivers/STM32F1xx_HAL_Driver/Src/stm32f1xx_hal_tim.c **** 
 446:./Drivers/STM32F1xx_HAL_Driver/Src/stm32f1xx_hal_tim.c ****   /* Set the TIM state */
 447:./Drivers/STM32F1xx_HAL_Driver/Src/stm32f1xx_hal_tim.c ****   htim->State = HAL_TIM_STATE_READY;
 469              		.loc 1 447 15 is_stmt 1
 470 0038 7B68     		ldr	r3, [r7, #4]
 471 003a 0122     		movs	r2, #1
 472 003c 83F83D20 		strb	r2, [r3, #61]
 448:./Drivers/STM32F1xx_HAL_Driver/Src/stm32f1xx_hal_tim.c **** 
 449:./Drivers/STM32F1xx_HAL_Driver/Src/stm32f1xx_hal_tim.c ****   /* Return function status */
 450:./Drivers/STM32F1xx_HAL_Driver/Src/stm32f1xx_hal_tim.c ****   return HAL_OK;
ARM GAS  C:\Users\phucd\AppData\Local\Temp\ccc4tAyX.s 			page 17


 473              		.loc 1 450 10
 474 0040 0023     		movs	r3, #0
 451:./Drivers/STM32F1xx_HAL_Driver/Src/stm32f1xx_hal_tim.c **** }
 475              		.loc 1 451 1
 476 0042 1846     		mov	r0, r3
 477 0044 0C37     		adds	r7, r7, #12
 478              		.cfi_def_cfa_offset 4
 479 0046 BD46     		mov	sp, r7
 480              		.cfi_def_cfa_register 13
 481              		@ sp needed
 482 0048 80BC     		pop	{r7}
 483              		.cfi_restore 7
 484              		.cfi_def_cfa_offset 0
 485 004a 7047     		bx	lr
 486              		.cfi_endproc
 487              	.LFE70:
 489              		.section	.text.HAL_TIM_Base_Start_IT,"ax",%progbits
 490              		.align	1
 491              		.global	HAL_TIM_Base_Start_IT
 492              		.syntax unified
 493              		.thumb
 494              		.thumb_func
 495              		.fpu softvfp
 497              	HAL_TIM_Base_Start_IT:
 498              	.LFB71:
 452:./Drivers/STM32F1xx_HAL_Driver/Src/stm32f1xx_hal_tim.c **** 
 453:./Drivers/STM32F1xx_HAL_Driver/Src/stm32f1xx_hal_tim.c **** /**
 454:./Drivers/STM32F1xx_HAL_Driver/Src/stm32f1xx_hal_tim.c ****   * @brief  Starts the TIM Base generation in interrupt mode.
 455:./Drivers/STM32F1xx_HAL_Driver/Src/stm32f1xx_hal_tim.c ****   * @param  htim TIM Base handle
 456:./Drivers/STM32F1xx_HAL_Driver/Src/stm32f1xx_hal_tim.c ****   * @retval HAL status
 457:./Drivers/STM32F1xx_HAL_Driver/Src/stm32f1xx_hal_tim.c ****   */
 458:./Drivers/STM32F1xx_HAL_Driver/Src/stm32f1xx_hal_tim.c **** HAL_StatusTypeDef HAL_TIM_Base_Start_IT(TIM_HandleTypeDef *htim)
 459:./Drivers/STM32F1xx_HAL_Driver/Src/stm32f1xx_hal_tim.c **** {
 499              		.loc 1 459 1
 500              		.cfi_startproc
 501              		@ args = 0, pretend = 0, frame = 16
 502              		@ frame_needed = 1, uses_anonymous_args = 0
 503              		@ link register save eliminated.
 504 0000 80B4     		push	{r7}
 505              		.cfi_def_cfa_offset 4
 506              		.cfi_offset 7, -4
 507 0002 85B0     		sub	sp, sp, #20
 508              		.cfi_def_cfa_offset 24
 509 0004 00AF     		add	r7, sp, #0
 510              		.cfi_def_cfa_register 7
 511 0006 7860     		str	r0, [r7, #4]
 460:./Drivers/STM32F1xx_HAL_Driver/Src/stm32f1xx_hal_tim.c ****   uint32_t tmpsmcr;
 461:./Drivers/STM32F1xx_HAL_Driver/Src/stm32f1xx_hal_tim.c **** 
 462:./Drivers/STM32F1xx_HAL_Driver/Src/stm32f1xx_hal_tim.c ****   /* Check the parameters */
 463:./Drivers/STM32F1xx_HAL_Driver/Src/stm32f1xx_hal_tim.c ****   assert_param(IS_TIM_INSTANCE(htim->Instance));
 464:./Drivers/STM32F1xx_HAL_Driver/Src/stm32f1xx_hal_tim.c **** 
 465:./Drivers/STM32F1xx_HAL_Driver/Src/stm32f1xx_hal_tim.c ****   /* Check the TIM state */
 466:./Drivers/STM32F1xx_HAL_Driver/Src/stm32f1xx_hal_tim.c ****   if (htim->State != HAL_TIM_STATE_READY)
 512              		.loc 1 466 11
 513 0008 7B68     		ldr	r3, [r7, #4]
 514 000a 93F83D30 		ldrb	r3, [r3, #61]
 515 000e DBB2     		uxtb	r3, r3
ARM GAS  C:\Users\phucd\AppData\Local\Temp\ccc4tAyX.s 			page 18


 516              		.loc 1 466 6
 517 0010 012B     		cmp	r3, #1
 518 0012 01D0     		beq	.L23
 467:./Drivers/STM32F1xx_HAL_Driver/Src/stm32f1xx_hal_tim.c ****   {
 468:./Drivers/STM32F1xx_HAL_Driver/Src/stm32f1xx_hal_tim.c ****     return HAL_ERROR;
 519              		.loc 1 468 12
 520 0014 0123     		movs	r3, #1
 521 0016 3AE0     		b	.L24
 522              	.L23:
 469:./Drivers/STM32F1xx_HAL_Driver/Src/stm32f1xx_hal_tim.c ****   }
 470:./Drivers/STM32F1xx_HAL_Driver/Src/stm32f1xx_hal_tim.c **** 
 471:./Drivers/STM32F1xx_HAL_Driver/Src/stm32f1xx_hal_tim.c ****   /* Set the TIM state */
 472:./Drivers/STM32F1xx_HAL_Driver/Src/stm32f1xx_hal_tim.c ****   htim->State = HAL_TIM_STATE_BUSY;
 523              		.loc 1 472 15
 524 0018 7B68     		ldr	r3, [r7, #4]
 525 001a 0222     		movs	r2, #2
 526 001c 83F83D20 		strb	r2, [r3, #61]
 473:./Drivers/STM32F1xx_HAL_Driver/Src/stm32f1xx_hal_tim.c **** 
 474:./Drivers/STM32F1xx_HAL_Driver/Src/stm32f1xx_hal_tim.c ****   /* Enable the TIM Update interrupt */
 475:./Drivers/STM32F1xx_HAL_Driver/Src/stm32f1xx_hal_tim.c ****   __HAL_TIM_ENABLE_IT(htim, TIM_IT_UPDATE);
 527              		.loc 1 475 3
 528 0020 7B68     		ldr	r3, [r7, #4]
 529 0022 1B68     		ldr	r3, [r3]
 530 0024 DA68     		ldr	r2, [r3, #12]
 531 0026 7B68     		ldr	r3, [r7, #4]
 532 0028 1B68     		ldr	r3, [r3]
 533 002a 42F00102 		orr	r2, r2, #1
 534 002e DA60     		str	r2, [r3, #12]
 476:./Drivers/STM32F1xx_HAL_Driver/Src/stm32f1xx_hal_tim.c **** 
 477:./Drivers/STM32F1xx_HAL_Driver/Src/stm32f1xx_hal_tim.c ****   /* Enable the Peripheral, except in trigger mode where enable is automatically done with trigger 
 478:./Drivers/STM32F1xx_HAL_Driver/Src/stm32f1xx_hal_tim.c ****   if (IS_TIM_SLAVE_INSTANCE(htim->Instance))
 535              		.loc 1 478 7
 536 0030 7B68     		ldr	r3, [r7, #4]
 537 0032 1B68     		ldr	r3, [r3]
 538              		.loc 1 478 6
 539 0034 184A     		ldr	r2, .L29
 540 0036 9342     		cmp	r3, r2
 541 0038 0ED0     		beq	.L25
 542              		.loc 1 478 7 discriminator 1
 543 003a 7B68     		ldr	r3, [r7, #4]
 544 003c 1B68     		ldr	r3, [r3]
 545 003e B3F1804F 		cmp	r3, #1073741824
 546 0042 09D0     		beq	.L25
 547              		.loc 1 478 7 is_stmt 0 discriminator 2
 548 0044 7B68     		ldr	r3, [r7, #4]
 549 0046 1B68     		ldr	r3, [r3]
 550 0048 144A     		ldr	r2, .L29+4
 551 004a 9342     		cmp	r3, r2
 552 004c 04D0     		beq	.L25
 553              		.loc 1 478 7 discriminator 3
 554 004e 7B68     		ldr	r3, [r7, #4]
 555 0050 1B68     		ldr	r3, [r3]
 556 0052 134A     		ldr	r2, .L29+8
 557 0054 9342     		cmp	r3, r2
 558 0056 11D1     		bne	.L26
 559              	.L25:
 479:./Drivers/STM32F1xx_HAL_Driver/Src/stm32f1xx_hal_tim.c ****   {
ARM GAS  C:\Users\phucd\AppData\Local\Temp\ccc4tAyX.s 			page 19


 480:./Drivers/STM32F1xx_HAL_Driver/Src/stm32f1xx_hal_tim.c ****     tmpsmcr = htim->Instance->SMCR & TIM_SMCR_SMS;
 560              		.loc 1 480 19 is_stmt 1
 561 0058 7B68     		ldr	r3, [r7, #4]
 562 005a 1B68     		ldr	r3, [r3]
 563              		.loc 1 480 29
 564 005c 9B68     		ldr	r3, [r3, #8]
 565              		.loc 1 480 13
 566 005e 03F00703 		and	r3, r3, #7
 567 0062 FB60     		str	r3, [r7, #12]
 481:./Drivers/STM32F1xx_HAL_Driver/Src/stm32f1xx_hal_tim.c ****     if (!IS_TIM_SLAVEMODE_TRIGGER_ENABLED(tmpsmcr))
 568              		.loc 1 481 8
 569 0064 FB68     		ldr	r3, [r7, #12]
 570 0066 062B     		cmp	r3, #6
 571 0068 10D0     		beq	.L28
 482:./Drivers/STM32F1xx_HAL_Driver/Src/stm32f1xx_hal_tim.c ****     {
 483:./Drivers/STM32F1xx_HAL_Driver/Src/stm32f1xx_hal_tim.c ****       __HAL_TIM_ENABLE(htim);
 572              		.loc 1 483 7
 573 006a 7B68     		ldr	r3, [r7, #4]
 574 006c 1B68     		ldr	r3, [r3]
 575 006e 1A68     		ldr	r2, [r3]
 576 0070 7B68     		ldr	r3, [r7, #4]
 577 0072 1B68     		ldr	r3, [r3]
 578 0074 42F00102 		orr	r2, r2, #1
 579 0078 1A60     		str	r2, [r3]
 481:./Drivers/STM32F1xx_HAL_Driver/Src/stm32f1xx_hal_tim.c ****     if (!IS_TIM_SLAVEMODE_TRIGGER_ENABLED(tmpsmcr))
 580              		.loc 1 481 8
 581 007a 07E0     		b	.L28
 582              	.L26:
 484:./Drivers/STM32F1xx_HAL_Driver/Src/stm32f1xx_hal_tim.c ****     }
 485:./Drivers/STM32F1xx_HAL_Driver/Src/stm32f1xx_hal_tim.c ****   }
 486:./Drivers/STM32F1xx_HAL_Driver/Src/stm32f1xx_hal_tim.c ****   else
 487:./Drivers/STM32F1xx_HAL_Driver/Src/stm32f1xx_hal_tim.c ****   {
 488:./Drivers/STM32F1xx_HAL_Driver/Src/stm32f1xx_hal_tim.c ****     __HAL_TIM_ENABLE(htim);
 583              		.loc 1 488 5
 584 007c 7B68     		ldr	r3, [r7, #4]
 585 007e 1B68     		ldr	r3, [r3]
 586 0080 1A68     		ldr	r2, [r3]
 587 0082 7B68     		ldr	r3, [r7, #4]
 588 0084 1B68     		ldr	r3, [r3]
 589 0086 42F00102 		orr	r2, r2, #1
 590 008a 1A60     		str	r2, [r3]
 591              	.L28:
 489:./Drivers/STM32F1xx_HAL_Driver/Src/stm32f1xx_hal_tim.c ****   }
 490:./Drivers/STM32F1xx_HAL_Driver/Src/stm32f1xx_hal_tim.c **** 
 491:./Drivers/STM32F1xx_HAL_Driver/Src/stm32f1xx_hal_tim.c ****   /* Return function status */
 492:./Drivers/STM32F1xx_HAL_Driver/Src/stm32f1xx_hal_tim.c ****   return HAL_OK;
 592              		.loc 1 492 10
 593 008c 0023     		movs	r3, #0
 594              	.L24:
 493:./Drivers/STM32F1xx_HAL_Driver/Src/stm32f1xx_hal_tim.c **** }
 595              		.loc 1 493 1
 596 008e 1846     		mov	r0, r3
 597 0090 1437     		adds	r7, r7, #20
 598              		.cfi_def_cfa_offset 4
 599 0092 BD46     		mov	sp, r7
 600              		.cfi_def_cfa_register 13
 601              		@ sp needed
ARM GAS  C:\Users\phucd\AppData\Local\Temp\ccc4tAyX.s 			page 20


 602 0094 80BC     		pop	{r7}
 603              		.cfi_restore 7
 604              		.cfi_def_cfa_offset 0
 605 0096 7047     		bx	lr
 606              	.L30:
 607              		.align	2
 608              	.L29:
 609 0098 002C0140 		.word	1073818624
 610 009c 00040040 		.word	1073742848
 611 00a0 00080040 		.word	1073743872
 612              		.cfi_endproc
 613              	.LFE71:
 615              		.section	.text.HAL_TIM_Base_Stop_IT,"ax",%progbits
 616              		.align	1
 617              		.global	HAL_TIM_Base_Stop_IT
 618              		.syntax unified
 619              		.thumb
 620              		.thumb_func
 621              		.fpu softvfp
 623              	HAL_TIM_Base_Stop_IT:
 624              	.LFB72:
 494:./Drivers/STM32F1xx_HAL_Driver/Src/stm32f1xx_hal_tim.c **** 
 495:./Drivers/STM32F1xx_HAL_Driver/Src/stm32f1xx_hal_tim.c **** /**
 496:./Drivers/STM32F1xx_HAL_Driver/Src/stm32f1xx_hal_tim.c ****   * @brief  Stops the TIM Base generation in interrupt mode.
 497:./Drivers/STM32F1xx_HAL_Driver/Src/stm32f1xx_hal_tim.c ****   * @param  htim TIM Base handle
 498:./Drivers/STM32F1xx_HAL_Driver/Src/stm32f1xx_hal_tim.c ****   * @retval HAL status
 499:./Drivers/STM32F1xx_HAL_Driver/Src/stm32f1xx_hal_tim.c ****   */
 500:./Drivers/STM32F1xx_HAL_Driver/Src/stm32f1xx_hal_tim.c **** HAL_StatusTypeDef HAL_TIM_Base_Stop_IT(TIM_HandleTypeDef *htim)
 501:./Drivers/STM32F1xx_HAL_Driver/Src/stm32f1xx_hal_tim.c **** {
 625              		.loc 1 501 1
 626              		.cfi_startproc
 627              		@ args = 0, pretend = 0, frame = 8
 628              		@ frame_needed = 1, uses_anonymous_args = 0
 629              		@ link register save eliminated.
 630 0000 80B4     		push	{r7}
 631              		.cfi_def_cfa_offset 4
 632              		.cfi_offset 7, -4
 633 0002 83B0     		sub	sp, sp, #12
 634              		.cfi_def_cfa_offset 16
 635 0004 00AF     		add	r7, sp, #0
 636              		.cfi_def_cfa_register 7
 637 0006 7860     		str	r0, [r7, #4]
 502:./Drivers/STM32F1xx_HAL_Driver/Src/stm32f1xx_hal_tim.c ****   /* Check the parameters */
 503:./Drivers/STM32F1xx_HAL_Driver/Src/stm32f1xx_hal_tim.c ****   assert_param(IS_TIM_INSTANCE(htim->Instance));
 504:./Drivers/STM32F1xx_HAL_Driver/Src/stm32f1xx_hal_tim.c **** 
 505:./Drivers/STM32F1xx_HAL_Driver/Src/stm32f1xx_hal_tim.c ****   /* Disable the TIM Update interrupt */
 506:./Drivers/STM32F1xx_HAL_Driver/Src/stm32f1xx_hal_tim.c ****   __HAL_TIM_DISABLE_IT(htim, TIM_IT_UPDATE);
 638              		.loc 1 506 3
 639 0008 7B68     		ldr	r3, [r7, #4]
 640 000a 1B68     		ldr	r3, [r3]
 641 000c DA68     		ldr	r2, [r3, #12]
 642 000e 7B68     		ldr	r3, [r7, #4]
 643 0010 1B68     		ldr	r3, [r3]
 644 0012 22F00102 		bic	r2, r2, #1
 645 0016 DA60     		str	r2, [r3, #12]
 507:./Drivers/STM32F1xx_HAL_Driver/Src/stm32f1xx_hal_tim.c **** 
 508:./Drivers/STM32F1xx_HAL_Driver/Src/stm32f1xx_hal_tim.c ****   /* Disable the Peripheral */
ARM GAS  C:\Users\phucd\AppData\Local\Temp\ccc4tAyX.s 			page 21


 509:./Drivers/STM32F1xx_HAL_Driver/Src/stm32f1xx_hal_tim.c ****   __HAL_TIM_DISABLE(htim);
 646              		.loc 1 509 3
 647 0018 7B68     		ldr	r3, [r7, #4]
 648 001a 1B68     		ldr	r3, [r3]
 649 001c 1A6A     		ldr	r2, [r3, #32]
 650 001e 41F21113 		movw	r3, #4369
 651 0022 1340     		ands	r3, r3, r2
 652 0024 002B     		cmp	r3, #0
 653 0026 0FD1     		bne	.L32
 654              		.loc 1 509 3 is_stmt 0 discriminator 1
 655 0028 7B68     		ldr	r3, [r7, #4]
 656 002a 1B68     		ldr	r3, [r3]
 657 002c 1A6A     		ldr	r2, [r3, #32]
 658 002e 40F24443 		movw	r3, #1092
 659 0032 1340     		ands	r3, r3, r2
 660 0034 002B     		cmp	r3, #0
 661 0036 07D1     		bne	.L32
 662              		.loc 1 509 3 discriminator 2
 663 0038 7B68     		ldr	r3, [r7, #4]
 664 003a 1B68     		ldr	r3, [r3]
 665 003c 1A68     		ldr	r2, [r3]
 666 003e 7B68     		ldr	r3, [r7, #4]
 667 0040 1B68     		ldr	r3, [r3]
 668 0042 22F00102 		bic	r2, r2, #1
 669 0046 1A60     		str	r2, [r3]
 670              	.L32:
 510:./Drivers/STM32F1xx_HAL_Driver/Src/stm32f1xx_hal_tim.c **** 
 511:./Drivers/STM32F1xx_HAL_Driver/Src/stm32f1xx_hal_tim.c ****   /* Set the TIM state */
 512:./Drivers/STM32F1xx_HAL_Driver/Src/stm32f1xx_hal_tim.c ****   htim->State = HAL_TIM_STATE_READY;
 671              		.loc 1 512 15 is_stmt 1
 672 0048 7B68     		ldr	r3, [r7, #4]
 673 004a 0122     		movs	r2, #1
 674 004c 83F83D20 		strb	r2, [r3, #61]
 513:./Drivers/STM32F1xx_HAL_Driver/Src/stm32f1xx_hal_tim.c **** 
 514:./Drivers/STM32F1xx_HAL_Driver/Src/stm32f1xx_hal_tim.c ****   /* Return function status */
 515:./Drivers/STM32F1xx_HAL_Driver/Src/stm32f1xx_hal_tim.c ****   return HAL_OK;
 675              		.loc 1 515 10
 676 0050 0023     		movs	r3, #0
 516:./Drivers/STM32F1xx_HAL_Driver/Src/stm32f1xx_hal_tim.c **** }
 677              		.loc 1 516 1
 678 0052 1846     		mov	r0, r3
 679 0054 0C37     		adds	r7, r7, #12
 680              		.cfi_def_cfa_offset 4
 681 0056 BD46     		mov	sp, r7
 682              		.cfi_def_cfa_register 13
 683              		@ sp needed
 684 0058 80BC     		pop	{r7}
 685              		.cfi_restore 7
 686              		.cfi_def_cfa_offset 0
 687 005a 7047     		bx	lr
 688              		.cfi_endproc
 689              	.LFE72:
 691              		.section	.text.HAL_TIM_Base_Start_DMA,"ax",%progbits
 692              		.align	1
 693              		.global	HAL_TIM_Base_Start_DMA
 694              		.syntax unified
 695              		.thumb
ARM GAS  C:\Users\phucd\AppData\Local\Temp\ccc4tAyX.s 			page 22


 696              		.thumb_func
 697              		.fpu softvfp
 699              	HAL_TIM_Base_Start_DMA:
 700              	.LFB73:
 517:./Drivers/STM32F1xx_HAL_Driver/Src/stm32f1xx_hal_tim.c **** 
 518:./Drivers/STM32F1xx_HAL_Driver/Src/stm32f1xx_hal_tim.c **** /**
 519:./Drivers/STM32F1xx_HAL_Driver/Src/stm32f1xx_hal_tim.c ****   * @brief  Starts the TIM Base generation in DMA mode.
 520:./Drivers/STM32F1xx_HAL_Driver/Src/stm32f1xx_hal_tim.c ****   * @param  htim TIM Base handle
 521:./Drivers/STM32F1xx_HAL_Driver/Src/stm32f1xx_hal_tim.c ****   * @param  pData The source Buffer address.
 522:./Drivers/STM32F1xx_HAL_Driver/Src/stm32f1xx_hal_tim.c ****   * @param  Length The length of data to be transferred from memory to peripheral.
 523:./Drivers/STM32F1xx_HAL_Driver/Src/stm32f1xx_hal_tim.c ****   * @retval HAL status
 524:./Drivers/STM32F1xx_HAL_Driver/Src/stm32f1xx_hal_tim.c ****   */
 525:./Drivers/STM32F1xx_HAL_Driver/Src/stm32f1xx_hal_tim.c **** HAL_StatusTypeDef HAL_TIM_Base_Start_DMA(TIM_HandleTypeDef *htim, uint32_t *pData, uint16_t Length)
 526:./Drivers/STM32F1xx_HAL_Driver/Src/stm32f1xx_hal_tim.c **** {
 701              		.loc 1 526 1
 702              		.cfi_startproc
 703              		@ args = 0, pretend = 0, frame = 24
 704              		@ frame_needed = 1, uses_anonymous_args = 0
 705 0000 80B5     		push	{r7, lr}
 706              		.cfi_def_cfa_offset 8
 707              		.cfi_offset 7, -8
 708              		.cfi_offset 14, -4
 709 0002 86B0     		sub	sp, sp, #24
 710              		.cfi_def_cfa_offset 32
 711 0004 00AF     		add	r7, sp, #0
 712              		.cfi_def_cfa_register 7
 713 0006 F860     		str	r0, [r7, #12]
 714 0008 B960     		str	r1, [r7, #8]
 715 000a 1346     		mov	r3, r2
 716 000c FB80     		strh	r3, [r7, #6]	@ movhi
 527:./Drivers/STM32F1xx_HAL_Driver/Src/stm32f1xx_hal_tim.c ****   uint32_t tmpsmcr;
 528:./Drivers/STM32F1xx_HAL_Driver/Src/stm32f1xx_hal_tim.c **** 
 529:./Drivers/STM32F1xx_HAL_Driver/Src/stm32f1xx_hal_tim.c ****   /* Check the parameters */
 530:./Drivers/STM32F1xx_HAL_Driver/Src/stm32f1xx_hal_tim.c ****   assert_param(IS_TIM_DMA_INSTANCE(htim->Instance));
 531:./Drivers/STM32F1xx_HAL_Driver/Src/stm32f1xx_hal_tim.c **** 
 532:./Drivers/STM32F1xx_HAL_Driver/Src/stm32f1xx_hal_tim.c ****   /* Set the TIM state */
 533:./Drivers/STM32F1xx_HAL_Driver/Src/stm32f1xx_hal_tim.c ****   if (htim->State == HAL_TIM_STATE_BUSY)
 717              		.loc 1 533 11
 718 000e FB68     		ldr	r3, [r7, #12]
 719 0010 93F83D30 		ldrb	r3, [r3, #61]
 720 0014 DBB2     		uxtb	r3, r3
 721              		.loc 1 533 6
 722 0016 022B     		cmp	r3, #2
 723 0018 01D1     		bne	.L35
 534:./Drivers/STM32F1xx_HAL_Driver/Src/stm32f1xx_hal_tim.c ****   {
 535:./Drivers/STM32F1xx_HAL_Driver/Src/stm32f1xx_hal_tim.c ****     return HAL_BUSY;
 724              		.loc 1 535 12
 725 001a 0223     		movs	r3, #2
 726 001c 66E0     		b	.L36
 727              	.L35:
 536:./Drivers/STM32F1xx_HAL_Driver/Src/stm32f1xx_hal_tim.c ****   }
 537:./Drivers/STM32F1xx_HAL_Driver/Src/stm32f1xx_hal_tim.c ****   else if (htim->State == HAL_TIM_STATE_READY)
 728              		.loc 1 537 16
 729 001e FB68     		ldr	r3, [r7, #12]
 730 0020 93F83D30 		ldrb	r3, [r3, #61]
 731 0024 DBB2     		uxtb	r3, r3
 732              		.loc 1 537 11
ARM GAS  C:\Users\phucd\AppData\Local\Temp\ccc4tAyX.s 			page 23


 733 0026 012B     		cmp	r3, #1
 734 0028 25D1     		bne	.L37
 538:./Drivers/STM32F1xx_HAL_Driver/Src/stm32f1xx_hal_tim.c ****   {
 539:./Drivers/STM32F1xx_HAL_Driver/Src/stm32f1xx_hal_tim.c ****     if ((pData == NULL) && (Length > 0U))
 735              		.loc 1 539 8
 736 002a BB68     		ldr	r3, [r7, #8]
 737 002c 002B     		cmp	r3, #0
 738 002e 04D1     		bne	.L38
 739              		.loc 1 539 25 discriminator 1
 740 0030 FB88     		ldrh	r3, [r7, #6]
 741 0032 002B     		cmp	r3, #0
 742 0034 01D0     		beq	.L38
 540:./Drivers/STM32F1xx_HAL_Driver/Src/stm32f1xx_hal_tim.c ****     {
 541:./Drivers/STM32F1xx_HAL_Driver/Src/stm32f1xx_hal_tim.c ****       return HAL_ERROR;
 743              		.loc 1 541 14
 744 0036 0123     		movs	r3, #1
 745 0038 58E0     		b	.L36
 746              	.L38:
 542:./Drivers/STM32F1xx_HAL_Driver/Src/stm32f1xx_hal_tim.c ****     }
 543:./Drivers/STM32F1xx_HAL_Driver/Src/stm32f1xx_hal_tim.c ****     else
 544:./Drivers/STM32F1xx_HAL_Driver/Src/stm32f1xx_hal_tim.c ****     {
 545:./Drivers/STM32F1xx_HAL_Driver/Src/stm32f1xx_hal_tim.c ****       htim->State = HAL_TIM_STATE_BUSY;
 747              		.loc 1 545 19
 748 003a FB68     		ldr	r3, [r7, #12]
 749 003c 0222     		movs	r2, #2
 750 003e 83F83D20 		strb	r2, [r3, #61]
 546:./Drivers/STM32F1xx_HAL_Driver/Src/stm32f1xx_hal_tim.c ****     }
 547:./Drivers/STM32F1xx_HAL_Driver/Src/stm32f1xx_hal_tim.c ****   }
 548:./Drivers/STM32F1xx_HAL_Driver/Src/stm32f1xx_hal_tim.c ****   else
 549:./Drivers/STM32F1xx_HAL_Driver/Src/stm32f1xx_hal_tim.c ****   {
 550:./Drivers/STM32F1xx_HAL_Driver/Src/stm32f1xx_hal_tim.c ****     return HAL_ERROR;
 551:./Drivers/STM32F1xx_HAL_Driver/Src/stm32f1xx_hal_tim.c ****   }
 552:./Drivers/STM32F1xx_HAL_Driver/Src/stm32f1xx_hal_tim.c **** 
 553:./Drivers/STM32F1xx_HAL_Driver/Src/stm32f1xx_hal_tim.c ****   /* Set the DMA Period elapsed callbacks */
 554:./Drivers/STM32F1xx_HAL_Driver/Src/stm32f1xx_hal_tim.c ****   htim->hdma[TIM_DMA_ID_UPDATE]->XferCpltCallback = TIM_DMAPeriodElapsedCplt;
 751              		.loc 1 554 13
 752 0042 FB68     		ldr	r3, [r7, #12]
 753 0044 1B6A     		ldr	r3, [r3, #32]
 754              		.loc 1 554 51
 755 0046 2B4A     		ldr	r2, .L46
 756 0048 9A62     		str	r2, [r3, #40]
 555:./Drivers/STM32F1xx_HAL_Driver/Src/stm32f1xx_hal_tim.c ****   htim->hdma[TIM_DMA_ID_UPDATE]->XferHalfCpltCallback = TIM_DMAPeriodElapsedHalfCplt;
 757              		.loc 1 555 13
 758 004a FB68     		ldr	r3, [r7, #12]
 759 004c 1B6A     		ldr	r3, [r3, #32]
 760              		.loc 1 555 55
 761 004e 2A4A     		ldr	r2, .L46+4
 762 0050 DA62     		str	r2, [r3, #44]
 556:./Drivers/STM32F1xx_HAL_Driver/Src/stm32f1xx_hal_tim.c **** 
 557:./Drivers/STM32F1xx_HAL_Driver/Src/stm32f1xx_hal_tim.c ****   /* Set the DMA error callback */
 558:./Drivers/STM32F1xx_HAL_Driver/Src/stm32f1xx_hal_tim.c ****   htim->hdma[TIM_DMA_ID_UPDATE]->XferErrorCallback = TIM_DMAError ;
 763              		.loc 1 558 13
 764 0052 FB68     		ldr	r3, [r7, #12]
 765 0054 1B6A     		ldr	r3, [r3, #32]
 766              		.loc 1 558 52
 767 0056 294A     		ldr	r2, .L46+8
 768 0058 1A63     		str	r2, [r3, #48]
ARM GAS  C:\Users\phucd\AppData\Local\Temp\ccc4tAyX.s 			page 24


 559:./Drivers/STM32F1xx_HAL_Driver/Src/stm32f1xx_hal_tim.c **** 
 560:./Drivers/STM32F1xx_HAL_Driver/Src/stm32f1xx_hal_tim.c ****   /* Enable the DMA channel */
 561:./Drivers/STM32F1xx_HAL_Driver/Src/stm32f1xx_hal_tim.c ****   if (HAL_DMA_Start_IT(htim->hdma[TIM_DMA_ID_UPDATE], (uint32_t)pData, (uint32_t)&htim->Instance->A
 769              		.loc 1 561 7
 770 005a FB68     		ldr	r3, [r7, #12]
 771 005c 186A     		ldr	r0, [r3, #32]
 772 005e B968     		ldr	r1, [r7, #8]
 773              		.loc 1 561 87
 774 0060 FB68     		ldr	r3, [r7, #12]
 775 0062 1B68     		ldr	r3, [r3]
 776              		.loc 1 561 82
 777 0064 2C33     		adds	r3, r3, #44
 778              		.loc 1 561 7
 779 0066 1A46     		mov	r2, r3
 780 0068 FB88     		ldrh	r3, [r7, #6]
 781 006a FFF7FEFF 		bl	HAL_DMA_Start_IT
 782 006e 0346     		mov	r3, r0
 783              		.loc 1 561 6
 784 0070 002B     		cmp	r3, #0
 785 0072 04D0     		beq	.L40
 786 0074 01E0     		b	.L45
 787              	.L37:
 550:./Drivers/STM32F1xx_HAL_Driver/Src/stm32f1xx_hal_tim.c ****   }
 788              		.loc 1 550 12
 789 0076 0123     		movs	r3, #1
 790 0078 38E0     		b	.L36
 791              	.L45:
 562:./Drivers/STM32F1xx_HAL_Driver/Src/stm32f1xx_hal_tim.c ****                      Length) != HAL_OK)
 563:./Drivers/STM32F1xx_HAL_Driver/Src/stm32f1xx_hal_tim.c ****   {
 564:./Drivers/STM32F1xx_HAL_Driver/Src/stm32f1xx_hal_tim.c ****     /* Return error status */
 565:./Drivers/STM32F1xx_HAL_Driver/Src/stm32f1xx_hal_tim.c ****     return HAL_ERROR;
 792              		.loc 1 565 12
 793 007a 0123     		movs	r3, #1
 794 007c 36E0     		b	.L36
 795              	.L40:
 566:./Drivers/STM32F1xx_HAL_Driver/Src/stm32f1xx_hal_tim.c ****   }
 567:./Drivers/STM32F1xx_HAL_Driver/Src/stm32f1xx_hal_tim.c **** 
 568:./Drivers/STM32F1xx_HAL_Driver/Src/stm32f1xx_hal_tim.c ****   /* Enable the TIM Update DMA request */
 569:./Drivers/STM32F1xx_HAL_Driver/Src/stm32f1xx_hal_tim.c ****   __HAL_TIM_ENABLE_DMA(htim, TIM_DMA_UPDATE);
 796              		.loc 1 569 3
 797 007e FB68     		ldr	r3, [r7, #12]
 798 0080 1B68     		ldr	r3, [r3]
 799 0082 DA68     		ldr	r2, [r3, #12]
 800 0084 FB68     		ldr	r3, [r7, #12]
 801 0086 1B68     		ldr	r3, [r3]
 802 0088 42F48072 		orr	r2, r2, #256
 803 008c DA60     		str	r2, [r3, #12]
 570:./Drivers/STM32F1xx_HAL_Driver/Src/stm32f1xx_hal_tim.c **** 
 571:./Drivers/STM32F1xx_HAL_Driver/Src/stm32f1xx_hal_tim.c ****   /* Enable the Peripheral, except in trigger mode where enable is automatically done with trigger 
 572:./Drivers/STM32F1xx_HAL_Driver/Src/stm32f1xx_hal_tim.c ****   if (IS_TIM_SLAVE_INSTANCE(htim->Instance))
 804              		.loc 1 572 7
 805 008e FB68     		ldr	r3, [r7, #12]
 806 0090 1B68     		ldr	r3, [r3]
 807              		.loc 1 572 6
 808 0092 1B4A     		ldr	r2, .L46+12
 809 0094 9342     		cmp	r3, r2
 810 0096 0ED0     		beq	.L41
ARM GAS  C:\Users\phucd\AppData\Local\Temp\ccc4tAyX.s 			page 25


 811              		.loc 1 572 7 discriminator 1
 812 0098 FB68     		ldr	r3, [r7, #12]
 813 009a 1B68     		ldr	r3, [r3]
 814 009c B3F1804F 		cmp	r3, #1073741824
 815 00a0 09D0     		beq	.L41
 816              		.loc 1 572 7 is_stmt 0 discriminator 2
 817 00a2 FB68     		ldr	r3, [r7, #12]
 818 00a4 1B68     		ldr	r3, [r3]
 819 00a6 174A     		ldr	r2, .L46+16
 820 00a8 9342     		cmp	r3, r2
 821 00aa 04D0     		beq	.L41
 822              		.loc 1 572 7 discriminator 3
 823 00ac FB68     		ldr	r3, [r7, #12]
 824 00ae 1B68     		ldr	r3, [r3]
 825 00b0 154A     		ldr	r2, .L46+20
 826 00b2 9342     		cmp	r3, r2
 827 00b4 11D1     		bne	.L42
 828              	.L41:
 573:./Drivers/STM32F1xx_HAL_Driver/Src/stm32f1xx_hal_tim.c ****   {
 574:./Drivers/STM32F1xx_HAL_Driver/Src/stm32f1xx_hal_tim.c ****     tmpsmcr = htim->Instance->SMCR & TIM_SMCR_SMS;
 829              		.loc 1 574 19 is_stmt 1
 830 00b6 FB68     		ldr	r3, [r7, #12]
 831 00b8 1B68     		ldr	r3, [r3]
 832              		.loc 1 574 29
 833 00ba 9B68     		ldr	r3, [r3, #8]
 834              		.loc 1 574 13
 835 00bc 03F00703 		and	r3, r3, #7
 836 00c0 7B61     		str	r3, [r7, #20]
 575:./Drivers/STM32F1xx_HAL_Driver/Src/stm32f1xx_hal_tim.c ****     if (!IS_TIM_SLAVEMODE_TRIGGER_ENABLED(tmpsmcr))
 837              		.loc 1 575 8
 838 00c2 7B69     		ldr	r3, [r7, #20]
 839 00c4 062B     		cmp	r3, #6
 840 00c6 10D0     		beq	.L44
 576:./Drivers/STM32F1xx_HAL_Driver/Src/stm32f1xx_hal_tim.c ****     {
 577:./Drivers/STM32F1xx_HAL_Driver/Src/stm32f1xx_hal_tim.c ****       __HAL_TIM_ENABLE(htim);
 841              		.loc 1 577 7
 842 00c8 FB68     		ldr	r3, [r7, #12]
 843 00ca 1B68     		ldr	r3, [r3]
 844 00cc 1A68     		ldr	r2, [r3]
 845 00ce FB68     		ldr	r3, [r7, #12]
 846 00d0 1B68     		ldr	r3, [r3]
 847 00d2 42F00102 		orr	r2, r2, #1
 848 00d6 1A60     		str	r2, [r3]
 575:./Drivers/STM32F1xx_HAL_Driver/Src/stm32f1xx_hal_tim.c ****     if (!IS_TIM_SLAVEMODE_TRIGGER_ENABLED(tmpsmcr))
 849              		.loc 1 575 8
 850 00d8 07E0     		b	.L44
 851              	.L42:
 578:./Drivers/STM32F1xx_HAL_Driver/Src/stm32f1xx_hal_tim.c ****     }
 579:./Drivers/STM32F1xx_HAL_Driver/Src/stm32f1xx_hal_tim.c ****   }
 580:./Drivers/STM32F1xx_HAL_Driver/Src/stm32f1xx_hal_tim.c ****   else
 581:./Drivers/STM32F1xx_HAL_Driver/Src/stm32f1xx_hal_tim.c ****   {
 582:./Drivers/STM32F1xx_HAL_Driver/Src/stm32f1xx_hal_tim.c ****     __HAL_TIM_ENABLE(htim);
 852              		.loc 1 582 5
 853 00da FB68     		ldr	r3, [r7, #12]
 854 00dc 1B68     		ldr	r3, [r3]
 855 00de 1A68     		ldr	r2, [r3]
 856 00e0 FB68     		ldr	r3, [r7, #12]
ARM GAS  C:\Users\phucd\AppData\Local\Temp\ccc4tAyX.s 			page 26


 857 00e2 1B68     		ldr	r3, [r3]
 858 00e4 42F00102 		orr	r2, r2, #1
 859 00e8 1A60     		str	r2, [r3]
 860              	.L44:
 583:./Drivers/STM32F1xx_HAL_Driver/Src/stm32f1xx_hal_tim.c ****   }
 584:./Drivers/STM32F1xx_HAL_Driver/Src/stm32f1xx_hal_tim.c **** 
 585:./Drivers/STM32F1xx_HAL_Driver/Src/stm32f1xx_hal_tim.c ****   /* Return function status */
 586:./Drivers/STM32F1xx_HAL_Driver/Src/stm32f1xx_hal_tim.c ****   return HAL_OK;
 861              		.loc 1 586 10
 862 00ea 0023     		movs	r3, #0
 863              	.L36:
 587:./Drivers/STM32F1xx_HAL_Driver/Src/stm32f1xx_hal_tim.c **** }
 864              		.loc 1 587 1
 865 00ec 1846     		mov	r0, r3
 866 00ee 1837     		adds	r7, r7, #24
 867              		.cfi_def_cfa_offset 8
 868 00f0 BD46     		mov	sp, r7
 869              		.cfi_def_cfa_register 13
 870              		@ sp needed
 871 00f2 80BD     		pop	{r7, pc}
 872              	.L47:
 873              		.align	2
 874              	.L46:
 875 00f4 00000000 		.word	TIM_DMAPeriodElapsedCplt
 876 00f8 00000000 		.word	TIM_DMAPeriodElapsedHalfCplt
 877 00fc 00000000 		.word	TIM_DMAError
 878 0100 002C0140 		.word	1073818624
 879 0104 00040040 		.word	1073742848
 880 0108 00080040 		.word	1073743872
 881              		.cfi_endproc
 882              	.LFE73:
 884              		.section	.text.HAL_TIM_Base_Stop_DMA,"ax",%progbits
 885              		.align	1
 886              		.global	HAL_TIM_Base_Stop_DMA
 887              		.syntax unified
 888              		.thumb
 889              		.thumb_func
 890              		.fpu softvfp
 892              	HAL_TIM_Base_Stop_DMA:
 893              	.LFB74:
 588:./Drivers/STM32F1xx_HAL_Driver/Src/stm32f1xx_hal_tim.c **** 
 589:./Drivers/STM32F1xx_HAL_Driver/Src/stm32f1xx_hal_tim.c **** /**
 590:./Drivers/STM32F1xx_HAL_Driver/Src/stm32f1xx_hal_tim.c ****   * @brief  Stops the TIM Base generation in DMA mode.
 591:./Drivers/STM32F1xx_HAL_Driver/Src/stm32f1xx_hal_tim.c ****   * @param  htim TIM Base handle
 592:./Drivers/STM32F1xx_HAL_Driver/Src/stm32f1xx_hal_tim.c ****   * @retval HAL status
 593:./Drivers/STM32F1xx_HAL_Driver/Src/stm32f1xx_hal_tim.c ****   */
 594:./Drivers/STM32F1xx_HAL_Driver/Src/stm32f1xx_hal_tim.c **** HAL_StatusTypeDef HAL_TIM_Base_Stop_DMA(TIM_HandleTypeDef *htim)
 595:./Drivers/STM32F1xx_HAL_Driver/Src/stm32f1xx_hal_tim.c **** {
 894              		.loc 1 595 1
 895              		.cfi_startproc
 896              		@ args = 0, pretend = 0, frame = 8
 897              		@ frame_needed = 1, uses_anonymous_args = 0
 898 0000 80B5     		push	{r7, lr}
 899              		.cfi_def_cfa_offset 8
 900              		.cfi_offset 7, -8
 901              		.cfi_offset 14, -4
 902 0002 82B0     		sub	sp, sp, #8
ARM GAS  C:\Users\phucd\AppData\Local\Temp\ccc4tAyX.s 			page 27


 903              		.cfi_def_cfa_offset 16
 904 0004 00AF     		add	r7, sp, #0
 905              		.cfi_def_cfa_register 7
 906 0006 7860     		str	r0, [r7, #4]
 596:./Drivers/STM32F1xx_HAL_Driver/Src/stm32f1xx_hal_tim.c ****   /* Check the parameters */
 597:./Drivers/STM32F1xx_HAL_Driver/Src/stm32f1xx_hal_tim.c ****   assert_param(IS_TIM_DMA_INSTANCE(htim->Instance));
 598:./Drivers/STM32F1xx_HAL_Driver/Src/stm32f1xx_hal_tim.c **** 
 599:./Drivers/STM32F1xx_HAL_Driver/Src/stm32f1xx_hal_tim.c ****   /* Disable the TIM Update DMA request */
 600:./Drivers/STM32F1xx_HAL_Driver/Src/stm32f1xx_hal_tim.c ****   __HAL_TIM_DISABLE_DMA(htim, TIM_DMA_UPDATE);
 907              		.loc 1 600 3
 908 0008 7B68     		ldr	r3, [r7, #4]
 909 000a 1B68     		ldr	r3, [r3]
 910 000c DA68     		ldr	r2, [r3, #12]
 911 000e 7B68     		ldr	r3, [r7, #4]
 912 0010 1B68     		ldr	r3, [r3]
 913 0012 22F48072 		bic	r2, r2, #256
 914 0016 DA60     		str	r2, [r3, #12]
 601:./Drivers/STM32F1xx_HAL_Driver/Src/stm32f1xx_hal_tim.c **** 
 602:./Drivers/STM32F1xx_HAL_Driver/Src/stm32f1xx_hal_tim.c ****   (void)HAL_DMA_Abort_IT(htim->hdma[TIM_DMA_ID_UPDATE]);
 915              		.loc 1 602 9
 916 0018 7B68     		ldr	r3, [r7, #4]
 917 001a 1B6A     		ldr	r3, [r3, #32]
 918 001c 1846     		mov	r0, r3
 919 001e FFF7FEFF 		bl	HAL_DMA_Abort_IT
 603:./Drivers/STM32F1xx_HAL_Driver/Src/stm32f1xx_hal_tim.c **** 
 604:./Drivers/STM32F1xx_HAL_Driver/Src/stm32f1xx_hal_tim.c ****   /* Disable the Peripheral */
 605:./Drivers/STM32F1xx_HAL_Driver/Src/stm32f1xx_hal_tim.c ****   __HAL_TIM_DISABLE(htim);
 920              		.loc 1 605 3
 921 0022 7B68     		ldr	r3, [r7, #4]
 922 0024 1B68     		ldr	r3, [r3]
 923 0026 1A6A     		ldr	r2, [r3, #32]
 924 0028 41F21113 		movw	r3, #4369
 925 002c 1340     		ands	r3, r3, r2
 926 002e 002B     		cmp	r3, #0
 927 0030 0FD1     		bne	.L49
 928              		.loc 1 605 3 is_stmt 0 discriminator 1
 929 0032 7B68     		ldr	r3, [r7, #4]
 930 0034 1B68     		ldr	r3, [r3]
 931 0036 1A6A     		ldr	r2, [r3, #32]
 932 0038 40F24443 		movw	r3, #1092
 933 003c 1340     		ands	r3, r3, r2
 934 003e 002B     		cmp	r3, #0
 935 0040 07D1     		bne	.L49
 936              		.loc 1 605 3 discriminator 2
 937 0042 7B68     		ldr	r3, [r7, #4]
 938 0044 1B68     		ldr	r3, [r3]
 939 0046 1A68     		ldr	r2, [r3]
 940 0048 7B68     		ldr	r3, [r7, #4]
 941 004a 1B68     		ldr	r3, [r3]
 942 004c 22F00102 		bic	r2, r2, #1
 943 0050 1A60     		str	r2, [r3]
 944              	.L49:
 606:./Drivers/STM32F1xx_HAL_Driver/Src/stm32f1xx_hal_tim.c **** 
 607:./Drivers/STM32F1xx_HAL_Driver/Src/stm32f1xx_hal_tim.c ****   /* Set the TIM state */
 608:./Drivers/STM32F1xx_HAL_Driver/Src/stm32f1xx_hal_tim.c ****   htim->State = HAL_TIM_STATE_READY;
 945              		.loc 1 608 15 is_stmt 1
 946 0052 7B68     		ldr	r3, [r7, #4]
ARM GAS  C:\Users\phucd\AppData\Local\Temp\ccc4tAyX.s 			page 28


 947 0054 0122     		movs	r2, #1
 948 0056 83F83D20 		strb	r2, [r3, #61]
 609:./Drivers/STM32F1xx_HAL_Driver/Src/stm32f1xx_hal_tim.c **** 
 610:./Drivers/STM32F1xx_HAL_Driver/Src/stm32f1xx_hal_tim.c ****   /* Return function status */
 611:./Drivers/STM32F1xx_HAL_Driver/Src/stm32f1xx_hal_tim.c ****   return HAL_OK;
 949              		.loc 1 611 10
 950 005a 0023     		movs	r3, #0
 612:./Drivers/STM32F1xx_HAL_Driver/Src/stm32f1xx_hal_tim.c **** }
 951              		.loc 1 612 1
 952 005c 1846     		mov	r0, r3
 953 005e 0837     		adds	r7, r7, #8
 954              		.cfi_def_cfa_offset 8
 955 0060 BD46     		mov	sp, r7
 956              		.cfi_def_cfa_register 13
 957              		@ sp needed
 958 0062 80BD     		pop	{r7, pc}
 959              		.cfi_endproc
 960              	.LFE74:
 962              		.section	.text.HAL_TIM_OC_Init,"ax",%progbits
 963              		.align	1
 964              		.global	HAL_TIM_OC_Init
 965              		.syntax unified
 966              		.thumb
 967              		.thumb_func
 968              		.fpu softvfp
 970              	HAL_TIM_OC_Init:
 971              	.LFB75:
 613:./Drivers/STM32F1xx_HAL_Driver/Src/stm32f1xx_hal_tim.c **** 
 614:./Drivers/STM32F1xx_HAL_Driver/Src/stm32f1xx_hal_tim.c **** /**
 615:./Drivers/STM32F1xx_HAL_Driver/Src/stm32f1xx_hal_tim.c ****   * @}
 616:./Drivers/STM32F1xx_HAL_Driver/Src/stm32f1xx_hal_tim.c ****   */
 617:./Drivers/STM32F1xx_HAL_Driver/Src/stm32f1xx_hal_tim.c **** 
 618:./Drivers/STM32F1xx_HAL_Driver/Src/stm32f1xx_hal_tim.c **** /** @defgroup TIM_Exported_Functions_Group2 TIM Output Compare functions
 619:./Drivers/STM32F1xx_HAL_Driver/Src/stm32f1xx_hal_tim.c ****   *  @brief    TIM Output Compare functions
 620:./Drivers/STM32F1xx_HAL_Driver/Src/stm32f1xx_hal_tim.c ****   *
 621:./Drivers/STM32F1xx_HAL_Driver/Src/stm32f1xx_hal_tim.c **** @verbatim
 622:./Drivers/STM32F1xx_HAL_Driver/Src/stm32f1xx_hal_tim.c ****   ==============================================================================
 623:./Drivers/STM32F1xx_HAL_Driver/Src/stm32f1xx_hal_tim.c ****                   ##### TIM Output Compare functions #####
 624:./Drivers/STM32F1xx_HAL_Driver/Src/stm32f1xx_hal_tim.c ****   ==============================================================================
 625:./Drivers/STM32F1xx_HAL_Driver/Src/stm32f1xx_hal_tim.c ****   [..]
 626:./Drivers/STM32F1xx_HAL_Driver/Src/stm32f1xx_hal_tim.c ****     This section provides functions allowing to:
 627:./Drivers/STM32F1xx_HAL_Driver/Src/stm32f1xx_hal_tim.c ****     (+) Initialize and configure the TIM Output Compare.
 628:./Drivers/STM32F1xx_HAL_Driver/Src/stm32f1xx_hal_tim.c ****     (+) De-initialize the TIM Output Compare.
 629:./Drivers/STM32F1xx_HAL_Driver/Src/stm32f1xx_hal_tim.c ****     (+) Start the TIM Output Compare.
 630:./Drivers/STM32F1xx_HAL_Driver/Src/stm32f1xx_hal_tim.c ****     (+) Stop the TIM Output Compare.
 631:./Drivers/STM32F1xx_HAL_Driver/Src/stm32f1xx_hal_tim.c ****     (+) Start the TIM Output Compare and enable interrupt.
 632:./Drivers/STM32F1xx_HAL_Driver/Src/stm32f1xx_hal_tim.c ****     (+) Stop the TIM Output Compare and disable interrupt.
 633:./Drivers/STM32F1xx_HAL_Driver/Src/stm32f1xx_hal_tim.c ****     (+) Start the TIM Output Compare and enable DMA transfer.
 634:./Drivers/STM32F1xx_HAL_Driver/Src/stm32f1xx_hal_tim.c ****     (+) Stop the TIM Output Compare and disable DMA transfer.
 635:./Drivers/STM32F1xx_HAL_Driver/Src/stm32f1xx_hal_tim.c **** 
 636:./Drivers/STM32F1xx_HAL_Driver/Src/stm32f1xx_hal_tim.c **** @endverbatim
 637:./Drivers/STM32F1xx_HAL_Driver/Src/stm32f1xx_hal_tim.c ****   * @{
 638:./Drivers/STM32F1xx_HAL_Driver/Src/stm32f1xx_hal_tim.c ****   */
 639:./Drivers/STM32F1xx_HAL_Driver/Src/stm32f1xx_hal_tim.c **** /**
 640:./Drivers/STM32F1xx_HAL_Driver/Src/stm32f1xx_hal_tim.c ****   * @brief  Initializes the TIM Output Compare according to the specified
 641:./Drivers/STM32F1xx_HAL_Driver/Src/stm32f1xx_hal_tim.c ****   *         parameters in the TIM_HandleTypeDef and initializes the associated handle.
 642:./Drivers/STM32F1xx_HAL_Driver/Src/stm32f1xx_hal_tim.c ****   * @note   Switching from Center Aligned counter mode to Edge counter mode (or reverse)
ARM GAS  C:\Users\phucd\AppData\Local\Temp\ccc4tAyX.s 			page 29


 643:./Drivers/STM32F1xx_HAL_Driver/Src/stm32f1xx_hal_tim.c ****   *         requires a timer reset to avoid unexpected direction
 644:./Drivers/STM32F1xx_HAL_Driver/Src/stm32f1xx_hal_tim.c ****   *         due to DIR bit readonly in center aligned mode.
 645:./Drivers/STM32F1xx_HAL_Driver/Src/stm32f1xx_hal_tim.c ****   *         Ex: call @ref HAL_TIM_OC_DeInit() before HAL_TIM_OC_Init()
 646:./Drivers/STM32F1xx_HAL_Driver/Src/stm32f1xx_hal_tim.c ****   * @param  htim TIM Output Compare handle
 647:./Drivers/STM32F1xx_HAL_Driver/Src/stm32f1xx_hal_tim.c ****   * @retval HAL status
 648:./Drivers/STM32F1xx_HAL_Driver/Src/stm32f1xx_hal_tim.c ****   */
 649:./Drivers/STM32F1xx_HAL_Driver/Src/stm32f1xx_hal_tim.c **** HAL_StatusTypeDef HAL_TIM_OC_Init(TIM_HandleTypeDef *htim)
 650:./Drivers/STM32F1xx_HAL_Driver/Src/stm32f1xx_hal_tim.c **** {
 972              		.loc 1 650 1
 973              		.cfi_startproc
 974              		@ args = 0, pretend = 0, frame = 8
 975              		@ frame_needed = 1, uses_anonymous_args = 0
 976 0000 80B5     		push	{r7, lr}
 977              		.cfi_def_cfa_offset 8
 978              		.cfi_offset 7, -8
 979              		.cfi_offset 14, -4
 980 0002 82B0     		sub	sp, sp, #8
 981              		.cfi_def_cfa_offset 16
 982 0004 00AF     		add	r7, sp, #0
 983              		.cfi_def_cfa_register 7
 984 0006 7860     		str	r0, [r7, #4]
 651:./Drivers/STM32F1xx_HAL_Driver/Src/stm32f1xx_hal_tim.c ****   /* Check the TIM handle allocation */
 652:./Drivers/STM32F1xx_HAL_Driver/Src/stm32f1xx_hal_tim.c ****   if (htim == NULL)
 985              		.loc 1 652 6
 986 0008 7B68     		ldr	r3, [r7, #4]
 987 000a 002B     		cmp	r3, #0
 988 000c 01D1     		bne	.L52
 653:./Drivers/STM32F1xx_HAL_Driver/Src/stm32f1xx_hal_tim.c ****   {
 654:./Drivers/STM32F1xx_HAL_Driver/Src/stm32f1xx_hal_tim.c ****     return HAL_ERROR;
 989              		.loc 1 654 12
 990 000e 0123     		movs	r3, #1
 991 0010 41E0     		b	.L53
 992              	.L52:
 655:./Drivers/STM32F1xx_HAL_Driver/Src/stm32f1xx_hal_tim.c ****   }
 656:./Drivers/STM32F1xx_HAL_Driver/Src/stm32f1xx_hal_tim.c **** 
 657:./Drivers/STM32F1xx_HAL_Driver/Src/stm32f1xx_hal_tim.c ****   /* Check the parameters */
 658:./Drivers/STM32F1xx_HAL_Driver/Src/stm32f1xx_hal_tim.c ****   assert_param(IS_TIM_INSTANCE(htim->Instance));
 659:./Drivers/STM32F1xx_HAL_Driver/Src/stm32f1xx_hal_tim.c ****   assert_param(IS_TIM_COUNTER_MODE(htim->Init.CounterMode));
 660:./Drivers/STM32F1xx_HAL_Driver/Src/stm32f1xx_hal_tim.c ****   assert_param(IS_TIM_CLOCKDIVISION_DIV(htim->Init.ClockDivision));
 661:./Drivers/STM32F1xx_HAL_Driver/Src/stm32f1xx_hal_tim.c ****   assert_param(IS_TIM_AUTORELOAD_PRELOAD(htim->Init.AutoReloadPreload));
 662:./Drivers/STM32F1xx_HAL_Driver/Src/stm32f1xx_hal_tim.c **** 
 663:./Drivers/STM32F1xx_HAL_Driver/Src/stm32f1xx_hal_tim.c ****   if (htim->State == HAL_TIM_STATE_RESET)
 993              		.loc 1 663 11
 994 0012 7B68     		ldr	r3, [r7, #4]
 995 0014 93F83D30 		ldrb	r3, [r3, #61]
 996 0018 DBB2     		uxtb	r3, r3
 997              		.loc 1 663 6
 998 001a 002B     		cmp	r3, #0
 999 001c 06D1     		bne	.L54
 664:./Drivers/STM32F1xx_HAL_Driver/Src/stm32f1xx_hal_tim.c ****   {
 665:./Drivers/STM32F1xx_HAL_Driver/Src/stm32f1xx_hal_tim.c ****     /* Allocate lock resource and initialize it */
 666:./Drivers/STM32F1xx_HAL_Driver/Src/stm32f1xx_hal_tim.c ****     htim->Lock = HAL_UNLOCKED;
 1000              		.loc 1 666 16
 1001 001e 7B68     		ldr	r3, [r7, #4]
 1002 0020 0022     		movs	r2, #0
 1003 0022 83F83C20 		strb	r2, [r3, #60]
 667:./Drivers/STM32F1xx_HAL_Driver/Src/stm32f1xx_hal_tim.c **** 
ARM GAS  C:\Users\phucd\AppData\Local\Temp\ccc4tAyX.s 			page 30


 668:./Drivers/STM32F1xx_HAL_Driver/Src/stm32f1xx_hal_tim.c **** #if (USE_HAL_TIM_REGISTER_CALLBACKS == 1)
 669:./Drivers/STM32F1xx_HAL_Driver/Src/stm32f1xx_hal_tim.c ****     /* Reset interrupt callbacks to legacy weak callbacks */
 670:./Drivers/STM32F1xx_HAL_Driver/Src/stm32f1xx_hal_tim.c ****     TIM_ResetCallback(htim);
 671:./Drivers/STM32F1xx_HAL_Driver/Src/stm32f1xx_hal_tim.c **** 
 672:./Drivers/STM32F1xx_HAL_Driver/Src/stm32f1xx_hal_tim.c ****     if (htim->OC_MspInitCallback == NULL)
 673:./Drivers/STM32F1xx_HAL_Driver/Src/stm32f1xx_hal_tim.c ****     {
 674:./Drivers/STM32F1xx_HAL_Driver/Src/stm32f1xx_hal_tim.c ****       htim->OC_MspInitCallback = HAL_TIM_OC_MspInit;
 675:./Drivers/STM32F1xx_HAL_Driver/Src/stm32f1xx_hal_tim.c ****     }
 676:./Drivers/STM32F1xx_HAL_Driver/Src/stm32f1xx_hal_tim.c ****     /* Init the low level hardware : GPIO, CLOCK, NVIC */
 677:./Drivers/STM32F1xx_HAL_Driver/Src/stm32f1xx_hal_tim.c ****     htim->OC_MspInitCallback(htim);
 678:./Drivers/STM32F1xx_HAL_Driver/Src/stm32f1xx_hal_tim.c **** #else
 679:./Drivers/STM32F1xx_HAL_Driver/Src/stm32f1xx_hal_tim.c ****     /* Init the low level hardware : GPIO, CLOCK, NVIC and DMA */
 680:./Drivers/STM32F1xx_HAL_Driver/Src/stm32f1xx_hal_tim.c ****     HAL_TIM_OC_MspInit(htim);
 1004              		.loc 1 680 5
 1005 0026 7868     		ldr	r0, [r7, #4]
 1006 0028 FFF7FEFF 		bl	HAL_TIM_OC_MspInit
 1007              	.L54:
 681:./Drivers/STM32F1xx_HAL_Driver/Src/stm32f1xx_hal_tim.c **** #endif /* USE_HAL_TIM_REGISTER_CALLBACKS */
 682:./Drivers/STM32F1xx_HAL_Driver/Src/stm32f1xx_hal_tim.c ****   }
 683:./Drivers/STM32F1xx_HAL_Driver/Src/stm32f1xx_hal_tim.c **** 
 684:./Drivers/STM32F1xx_HAL_Driver/Src/stm32f1xx_hal_tim.c ****   /* Set the TIM state */
 685:./Drivers/STM32F1xx_HAL_Driver/Src/stm32f1xx_hal_tim.c ****   htim->State = HAL_TIM_STATE_BUSY;
 1008              		.loc 1 685 15
 1009 002c 7B68     		ldr	r3, [r7, #4]
 1010 002e 0222     		movs	r2, #2
 1011 0030 83F83D20 		strb	r2, [r3, #61]
 686:./Drivers/STM32F1xx_HAL_Driver/Src/stm32f1xx_hal_tim.c **** 
 687:./Drivers/STM32F1xx_HAL_Driver/Src/stm32f1xx_hal_tim.c ****   /* Init the base time for the Output Compare */
 688:./Drivers/STM32F1xx_HAL_Driver/Src/stm32f1xx_hal_tim.c ****   TIM_Base_SetConfig(htim->Instance,  &htim->Init);
 1012              		.loc 1 688 3
 1013 0034 7B68     		ldr	r3, [r7, #4]
 1014 0036 1A68     		ldr	r2, [r3]
 1015 0038 7B68     		ldr	r3, [r7, #4]
 1016 003a 0433     		adds	r3, r3, #4
 1017 003c 1946     		mov	r1, r3
 1018 003e 1046     		mov	r0, r2
 1019 0040 FFF7FEFF 		bl	TIM_Base_SetConfig
 689:./Drivers/STM32F1xx_HAL_Driver/Src/stm32f1xx_hal_tim.c **** 
 690:./Drivers/STM32F1xx_HAL_Driver/Src/stm32f1xx_hal_tim.c ****   /* Initialize the DMA burst operation state */
 691:./Drivers/STM32F1xx_HAL_Driver/Src/stm32f1xx_hal_tim.c ****   htim->DMABurstState = HAL_DMA_BURST_STATE_READY;
 1020              		.loc 1 691 23
 1021 0044 7B68     		ldr	r3, [r7, #4]
 1022 0046 0122     		movs	r2, #1
 1023 0048 83F84620 		strb	r2, [r3, #70]
 692:./Drivers/STM32F1xx_HAL_Driver/Src/stm32f1xx_hal_tim.c **** 
 693:./Drivers/STM32F1xx_HAL_Driver/Src/stm32f1xx_hal_tim.c ****   /* Initialize the TIM channels state */
 694:./Drivers/STM32F1xx_HAL_Driver/Src/stm32f1xx_hal_tim.c ****   TIM_CHANNEL_STATE_SET_ALL(htim, HAL_TIM_CHANNEL_STATE_READY);
 1024              		.loc 1 694 3
 1025 004c 7B68     		ldr	r3, [r7, #4]
 1026 004e 0122     		movs	r2, #1
 1027 0050 83F83E20 		strb	r2, [r3, #62]
 1028 0054 7B68     		ldr	r3, [r7, #4]
 1029 0056 0122     		movs	r2, #1
 1030 0058 83F83F20 		strb	r2, [r3, #63]
 1031 005c 7B68     		ldr	r3, [r7, #4]
 1032 005e 0122     		movs	r2, #1
 1033 0060 83F84020 		strb	r2, [r3, #64]
ARM GAS  C:\Users\phucd\AppData\Local\Temp\ccc4tAyX.s 			page 31


 1034 0064 7B68     		ldr	r3, [r7, #4]
 1035 0066 0122     		movs	r2, #1
 1036 0068 83F84120 		strb	r2, [r3, #65]
 695:./Drivers/STM32F1xx_HAL_Driver/Src/stm32f1xx_hal_tim.c ****   TIM_CHANNEL_N_STATE_SET_ALL(htim, HAL_TIM_CHANNEL_STATE_READY);
 1037              		.loc 1 695 3
 1038 006c 7B68     		ldr	r3, [r7, #4]
 1039 006e 0122     		movs	r2, #1
 1040 0070 83F84220 		strb	r2, [r3, #66]
 1041 0074 7B68     		ldr	r3, [r7, #4]
 1042 0076 0122     		movs	r2, #1
 1043 0078 83F84320 		strb	r2, [r3, #67]
 1044 007c 7B68     		ldr	r3, [r7, #4]
 1045 007e 0122     		movs	r2, #1
 1046 0080 83F84420 		strb	r2, [r3, #68]
 1047 0084 7B68     		ldr	r3, [r7, #4]
 1048 0086 0122     		movs	r2, #1
 1049 0088 83F84520 		strb	r2, [r3, #69]
 696:./Drivers/STM32F1xx_HAL_Driver/Src/stm32f1xx_hal_tim.c **** 
 697:./Drivers/STM32F1xx_HAL_Driver/Src/stm32f1xx_hal_tim.c ****   /* Initialize the TIM state*/
 698:./Drivers/STM32F1xx_HAL_Driver/Src/stm32f1xx_hal_tim.c ****   htim->State = HAL_TIM_STATE_READY;
 1050              		.loc 1 698 15
 1051 008c 7B68     		ldr	r3, [r7, #4]
 1052 008e 0122     		movs	r2, #1
 1053 0090 83F83D20 		strb	r2, [r3, #61]
 699:./Drivers/STM32F1xx_HAL_Driver/Src/stm32f1xx_hal_tim.c **** 
 700:./Drivers/STM32F1xx_HAL_Driver/Src/stm32f1xx_hal_tim.c ****   return HAL_OK;
 1054              		.loc 1 700 10
 1055 0094 0023     		movs	r3, #0
 1056              	.L53:
 701:./Drivers/STM32F1xx_HAL_Driver/Src/stm32f1xx_hal_tim.c **** }
 1057              		.loc 1 701 1
 1058 0096 1846     		mov	r0, r3
 1059 0098 0837     		adds	r7, r7, #8
 1060              		.cfi_def_cfa_offset 8
 1061 009a BD46     		mov	sp, r7
 1062              		.cfi_def_cfa_register 13
 1063              		@ sp needed
 1064 009c 80BD     		pop	{r7, pc}
 1065              		.cfi_endproc
 1066              	.LFE75:
 1068              		.section	.text.HAL_TIM_OC_DeInit,"ax",%progbits
 1069              		.align	1
 1070              		.global	HAL_TIM_OC_DeInit
 1071              		.syntax unified
 1072              		.thumb
 1073              		.thumb_func
 1074              		.fpu softvfp
 1076              	HAL_TIM_OC_DeInit:
 1077              	.LFB76:
 702:./Drivers/STM32F1xx_HAL_Driver/Src/stm32f1xx_hal_tim.c **** 
 703:./Drivers/STM32F1xx_HAL_Driver/Src/stm32f1xx_hal_tim.c **** /**
 704:./Drivers/STM32F1xx_HAL_Driver/Src/stm32f1xx_hal_tim.c ****   * @brief  DeInitializes the TIM peripheral
 705:./Drivers/STM32F1xx_HAL_Driver/Src/stm32f1xx_hal_tim.c ****   * @param  htim TIM Output Compare handle
 706:./Drivers/STM32F1xx_HAL_Driver/Src/stm32f1xx_hal_tim.c ****   * @retval HAL status
 707:./Drivers/STM32F1xx_HAL_Driver/Src/stm32f1xx_hal_tim.c ****   */
 708:./Drivers/STM32F1xx_HAL_Driver/Src/stm32f1xx_hal_tim.c **** HAL_StatusTypeDef HAL_TIM_OC_DeInit(TIM_HandleTypeDef *htim)
 709:./Drivers/STM32F1xx_HAL_Driver/Src/stm32f1xx_hal_tim.c **** {
ARM GAS  C:\Users\phucd\AppData\Local\Temp\ccc4tAyX.s 			page 32


 1078              		.loc 1 709 1
 1079              		.cfi_startproc
 1080              		@ args = 0, pretend = 0, frame = 8
 1081              		@ frame_needed = 1, uses_anonymous_args = 0
 1082 0000 80B5     		push	{r7, lr}
 1083              		.cfi_def_cfa_offset 8
 1084              		.cfi_offset 7, -8
 1085              		.cfi_offset 14, -4
 1086 0002 82B0     		sub	sp, sp, #8
 1087              		.cfi_def_cfa_offset 16
 1088 0004 00AF     		add	r7, sp, #0
 1089              		.cfi_def_cfa_register 7
 1090 0006 7860     		str	r0, [r7, #4]
 710:./Drivers/STM32F1xx_HAL_Driver/Src/stm32f1xx_hal_tim.c ****   /* Check the parameters */
 711:./Drivers/STM32F1xx_HAL_Driver/Src/stm32f1xx_hal_tim.c ****   assert_param(IS_TIM_INSTANCE(htim->Instance));
 712:./Drivers/STM32F1xx_HAL_Driver/Src/stm32f1xx_hal_tim.c **** 
 713:./Drivers/STM32F1xx_HAL_Driver/Src/stm32f1xx_hal_tim.c ****   htim->State = HAL_TIM_STATE_BUSY;
 1091              		.loc 1 713 15
 1092 0008 7B68     		ldr	r3, [r7, #4]
 1093 000a 0222     		movs	r2, #2
 1094 000c 83F83D20 		strb	r2, [r3, #61]
 714:./Drivers/STM32F1xx_HAL_Driver/Src/stm32f1xx_hal_tim.c **** 
 715:./Drivers/STM32F1xx_HAL_Driver/Src/stm32f1xx_hal_tim.c ****   /* Disable the TIM Peripheral Clock */
 716:./Drivers/STM32F1xx_HAL_Driver/Src/stm32f1xx_hal_tim.c ****   __HAL_TIM_DISABLE(htim);
 1095              		.loc 1 716 3
 1096 0010 7B68     		ldr	r3, [r7, #4]
 1097 0012 1B68     		ldr	r3, [r3]
 1098 0014 1A6A     		ldr	r2, [r3, #32]
 1099 0016 41F21113 		movw	r3, #4369
 1100 001a 1340     		ands	r3, r3, r2
 1101 001c 002B     		cmp	r3, #0
 1102 001e 0FD1     		bne	.L56
 1103              		.loc 1 716 3 is_stmt 0 discriminator 1
 1104 0020 7B68     		ldr	r3, [r7, #4]
 1105 0022 1B68     		ldr	r3, [r3]
 1106 0024 1A6A     		ldr	r2, [r3, #32]
 1107 0026 40F24443 		movw	r3, #1092
 1108 002a 1340     		ands	r3, r3, r2
 1109 002c 002B     		cmp	r3, #0
 1110 002e 07D1     		bne	.L56
 1111              		.loc 1 716 3 discriminator 2
 1112 0030 7B68     		ldr	r3, [r7, #4]
 1113 0032 1B68     		ldr	r3, [r3]
 1114 0034 1A68     		ldr	r2, [r3]
 1115 0036 7B68     		ldr	r3, [r7, #4]
 1116 0038 1B68     		ldr	r3, [r3]
 1117 003a 22F00102 		bic	r2, r2, #1
 1118 003e 1A60     		str	r2, [r3]
 1119              	.L56:
 717:./Drivers/STM32F1xx_HAL_Driver/Src/stm32f1xx_hal_tim.c **** 
 718:./Drivers/STM32F1xx_HAL_Driver/Src/stm32f1xx_hal_tim.c **** #if (USE_HAL_TIM_REGISTER_CALLBACKS == 1)
 719:./Drivers/STM32F1xx_HAL_Driver/Src/stm32f1xx_hal_tim.c ****   if (htim->OC_MspDeInitCallback == NULL)
 720:./Drivers/STM32F1xx_HAL_Driver/Src/stm32f1xx_hal_tim.c ****   {
 721:./Drivers/STM32F1xx_HAL_Driver/Src/stm32f1xx_hal_tim.c ****     htim->OC_MspDeInitCallback = HAL_TIM_OC_MspDeInit;
 722:./Drivers/STM32F1xx_HAL_Driver/Src/stm32f1xx_hal_tim.c ****   }
 723:./Drivers/STM32F1xx_HAL_Driver/Src/stm32f1xx_hal_tim.c ****   /* DeInit the low level hardware */
 724:./Drivers/STM32F1xx_HAL_Driver/Src/stm32f1xx_hal_tim.c ****   htim->OC_MspDeInitCallback(htim);
ARM GAS  C:\Users\phucd\AppData\Local\Temp\ccc4tAyX.s 			page 33


 725:./Drivers/STM32F1xx_HAL_Driver/Src/stm32f1xx_hal_tim.c **** #else
 726:./Drivers/STM32F1xx_HAL_Driver/Src/stm32f1xx_hal_tim.c ****   /* DeInit the low level hardware: GPIO, CLOCK, NVIC and DMA */
 727:./Drivers/STM32F1xx_HAL_Driver/Src/stm32f1xx_hal_tim.c ****   HAL_TIM_OC_MspDeInit(htim);
 1120              		.loc 1 727 3 is_stmt 1
 1121 0040 7868     		ldr	r0, [r7, #4]
 1122 0042 FFF7FEFF 		bl	HAL_TIM_OC_MspDeInit
 728:./Drivers/STM32F1xx_HAL_Driver/Src/stm32f1xx_hal_tim.c **** #endif /* USE_HAL_TIM_REGISTER_CALLBACKS */
 729:./Drivers/STM32F1xx_HAL_Driver/Src/stm32f1xx_hal_tim.c **** 
 730:./Drivers/STM32F1xx_HAL_Driver/Src/stm32f1xx_hal_tim.c ****   /* Change the DMA burst operation state */
 731:./Drivers/STM32F1xx_HAL_Driver/Src/stm32f1xx_hal_tim.c ****   htim->DMABurstState = HAL_DMA_BURST_STATE_RESET;
 1123              		.loc 1 731 23
 1124 0046 7B68     		ldr	r3, [r7, #4]
 1125 0048 0022     		movs	r2, #0
 1126 004a 83F84620 		strb	r2, [r3, #70]
 732:./Drivers/STM32F1xx_HAL_Driver/Src/stm32f1xx_hal_tim.c **** 
 733:./Drivers/STM32F1xx_HAL_Driver/Src/stm32f1xx_hal_tim.c ****   /* Change the TIM channels state */
 734:./Drivers/STM32F1xx_HAL_Driver/Src/stm32f1xx_hal_tim.c ****   TIM_CHANNEL_STATE_SET_ALL(htim, HAL_TIM_CHANNEL_STATE_RESET);
 1127              		.loc 1 734 3
 1128 004e 7B68     		ldr	r3, [r7, #4]
 1129 0050 0022     		movs	r2, #0
 1130 0052 83F83E20 		strb	r2, [r3, #62]
 1131 0056 7B68     		ldr	r3, [r7, #4]
 1132 0058 0022     		movs	r2, #0
 1133 005a 83F83F20 		strb	r2, [r3, #63]
 1134 005e 7B68     		ldr	r3, [r7, #4]
 1135 0060 0022     		movs	r2, #0
 1136 0062 83F84020 		strb	r2, [r3, #64]
 1137 0066 7B68     		ldr	r3, [r7, #4]
 1138 0068 0022     		movs	r2, #0
 1139 006a 83F84120 		strb	r2, [r3, #65]
 735:./Drivers/STM32F1xx_HAL_Driver/Src/stm32f1xx_hal_tim.c ****   TIM_CHANNEL_N_STATE_SET_ALL(htim, HAL_TIM_CHANNEL_STATE_RESET);
 1140              		.loc 1 735 3
 1141 006e 7B68     		ldr	r3, [r7, #4]
 1142 0070 0022     		movs	r2, #0
 1143 0072 83F84220 		strb	r2, [r3, #66]
 1144 0076 7B68     		ldr	r3, [r7, #4]
 1145 0078 0022     		movs	r2, #0
 1146 007a 83F84320 		strb	r2, [r3, #67]
 1147 007e 7B68     		ldr	r3, [r7, #4]
 1148 0080 0022     		movs	r2, #0
 1149 0082 83F84420 		strb	r2, [r3, #68]
 1150 0086 7B68     		ldr	r3, [r7, #4]
 1151 0088 0022     		movs	r2, #0
 1152 008a 83F84520 		strb	r2, [r3, #69]
 736:./Drivers/STM32F1xx_HAL_Driver/Src/stm32f1xx_hal_tim.c **** 
 737:./Drivers/STM32F1xx_HAL_Driver/Src/stm32f1xx_hal_tim.c ****   /* Change TIM state */
 738:./Drivers/STM32F1xx_HAL_Driver/Src/stm32f1xx_hal_tim.c ****   htim->State = HAL_TIM_STATE_RESET;
 1153              		.loc 1 738 15
 1154 008e 7B68     		ldr	r3, [r7, #4]
 1155 0090 0022     		movs	r2, #0
 1156 0092 83F83D20 		strb	r2, [r3, #61]
 739:./Drivers/STM32F1xx_HAL_Driver/Src/stm32f1xx_hal_tim.c **** 
 740:./Drivers/STM32F1xx_HAL_Driver/Src/stm32f1xx_hal_tim.c ****   /* Release Lock */
 741:./Drivers/STM32F1xx_HAL_Driver/Src/stm32f1xx_hal_tim.c ****   __HAL_UNLOCK(htim);
 1157              		.loc 1 741 3
 1158 0096 7B68     		ldr	r3, [r7, #4]
 1159 0098 0022     		movs	r2, #0
ARM GAS  C:\Users\phucd\AppData\Local\Temp\ccc4tAyX.s 			page 34


 1160 009a 83F83C20 		strb	r2, [r3, #60]
 742:./Drivers/STM32F1xx_HAL_Driver/Src/stm32f1xx_hal_tim.c **** 
 743:./Drivers/STM32F1xx_HAL_Driver/Src/stm32f1xx_hal_tim.c ****   return HAL_OK;
 1161              		.loc 1 743 10
 1162 009e 0023     		movs	r3, #0
 744:./Drivers/STM32F1xx_HAL_Driver/Src/stm32f1xx_hal_tim.c **** }
 1163              		.loc 1 744 1
 1164 00a0 1846     		mov	r0, r3
 1165 00a2 0837     		adds	r7, r7, #8
 1166              		.cfi_def_cfa_offset 8
 1167 00a4 BD46     		mov	sp, r7
 1168              		.cfi_def_cfa_register 13
 1169              		@ sp needed
 1170 00a6 80BD     		pop	{r7, pc}
 1171              		.cfi_endproc
 1172              	.LFE76:
 1174              		.section	.text.HAL_TIM_OC_MspInit,"ax",%progbits
 1175              		.align	1
 1176              		.weak	HAL_TIM_OC_MspInit
 1177              		.syntax unified
 1178              		.thumb
 1179              		.thumb_func
 1180              		.fpu softvfp
 1182              	HAL_TIM_OC_MspInit:
 1183              	.LFB77:
 745:./Drivers/STM32F1xx_HAL_Driver/Src/stm32f1xx_hal_tim.c **** 
 746:./Drivers/STM32F1xx_HAL_Driver/Src/stm32f1xx_hal_tim.c **** /**
 747:./Drivers/STM32F1xx_HAL_Driver/Src/stm32f1xx_hal_tim.c ****   * @brief  Initializes the TIM Output Compare MSP.
 748:./Drivers/STM32F1xx_HAL_Driver/Src/stm32f1xx_hal_tim.c ****   * @param  htim TIM Output Compare handle
 749:./Drivers/STM32F1xx_HAL_Driver/Src/stm32f1xx_hal_tim.c ****   * @retval None
 750:./Drivers/STM32F1xx_HAL_Driver/Src/stm32f1xx_hal_tim.c ****   */
 751:./Drivers/STM32F1xx_HAL_Driver/Src/stm32f1xx_hal_tim.c **** __weak void HAL_TIM_OC_MspInit(TIM_HandleTypeDef *htim)
 752:./Drivers/STM32F1xx_HAL_Driver/Src/stm32f1xx_hal_tim.c **** {
 1184              		.loc 1 752 1
 1185              		.cfi_startproc
 1186              		@ args = 0, pretend = 0, frame = 8
 1187              		@ frame_needed = 1, uses_anonymous_args = 0
 1188              		@ link register save eliminated.
 1189 0000 80B4     		push	{r7}
 1190              		.cfi_def_cfa_offset 4
 1191              		.cfi_offset 7, -4
 1192 0002 83B0     		sub	sp, sp, #12
 1193              		.cfi_def_cfa_offset 16
 1194 0004 00AF     		add	r7, sp, #0
 1195              		.cfi_def_cfa_register 7
 1196 0006 7860     		str	r0, [r7, #4]
 753:./Drivers/STM32F1xx_HAL_Driver/Src/stm32f1xx_hal_tim.c ****   /* Prevent unused argument(s) compilation warning */
 754:./Drivers/STM32F1xx_HAL_Driver/Src/stm32f1xx_hal_tim.c ****   UNUSED(htim);
 755:./Drivers/STM32F1xx_HAL_Driver/Src/stm32f1xx_hal_tim.c **** 
 756:./Drivers/STM32F1xx_HAL_Driver/Src/stm32f1xx_hal_tim.c ****   /* NOTE : This function should not be modified, when the callback is needed,
 757:./Drivers/STM32F1xx_HAL_Driver/Src/stm32f1xx_hal_tim.c ****             the HAL_TIM_OC_MspInit could be implemented in the user file
 758:./Drivers/STM32F1xx_HAL_Driver/Src/stm32f1xx_hal_tim.c ****    */
 759:./Drivers/STM32F1xx_HAL_Driver/Src/stm32f1xx_hal_tim.c **** }
 1197              		.loc 1 759 1
 1198 0008 00BF     		nop
 1199 000a 0C37     		adds	r7, r7, #12
 1200              		.cfi_def_cfa_offset 4
ARM GAS  C:\Users\phucd\AppData\Local\Temp\ccc4tAyX.s 			page 35


 1201 000c BD46     		mov	sp, r7
 1202              		.cfi_def_cfa_register 13
 1203              		@ sp needed
 1204 000e 80BC     		pop	{r7}
 1205              		.cfi_restore 7
 1206              		.cfi_def_cfa_offset 0
 1207 0010 7047     		bx	lr
 1208              		.cfi_endproc
 1209              	.LFE77:
 1211              		.section	.text.HAL_TIM_OC_MspDeInit,"ax",%progbits
 1212              		.align	1
 1213              		.weak	HAL_TIM_OC_MspDeInit
 1214              		.syntax unified
 1215              		.thumb
 1216              		.thumb_func
 1217              		.fpu softvfp
 1219              	HAL_TIM_OC_MspDeInit:
 1220              	.LFB78:
 760:./Drivers/STM32F1xx_HAL_Driver/Src/stm32f1xx_hal_tim.c **** 
 761:./Drivers/STM32F1xx_HAL_Driver/Src/stm32f1xx_hal_tim.c **** /**
 762:./Drivers/STM32F1xx_HAL_Driver/Src/stm32f1xx_hal_tim.c ****   * @brief  DeInitializes TIM Output Compare MSP.
 763:./Drivers/STM32F1xx_HAL_Driver/Src/stm32f1xx_hal_tim.c ****   * @param  htim TIM Output Compare handle
 764:./Drivers/STM32F1xx_HAL_Driver/Src/stm32f1xx_hal_tim.c ****   * @retval None
 765:./Drivers/STM32F1xx_HAL_Driver/Src/stm32f1xx_hal_tim.c ****   */
 766:./Drivers/STM32F1xx_HAL_Driver/Src/stm32f1xx_hal_tim.c **** __weak void HAL_TIM_OC_MspDeInit(TIM_HandleTypeDef *htim)
 767:./Drivers/STM32F1xx_HAL_Driver/Src/stm32f1xx_hal_tim.c **** {
 1221              		.loc 1 767 1
 1222              		.cfi_startproc
 1223              		@ args = 0, pretend = 0, frame = 8
 1224              		@ frame_needed = 1, uses_anonymous_args = 0
 1225              		@ link register save eliminated.
 1226 0000 80B4     		push	{r7}
 1227              		.cfi_def_cfa_offset 4
 1228              		.cfi_offset 7, -4
 1229 0002 83B0     		sub	sp, sp, #12
 1230              		.cfi_def_cfa_offset 16
 1231 0004 00AF     		add	r7, sp, #0
 1232              		.cfi_def_cfa_register 7
 1233 0006 7860     		str	r0, [r7, #4]
 768:./Drivers/STM32F1xx_HAL_Driver/Src/stm32f1xx_hal_tim.c ****   /* Prevent unused argument(s) compilation warning */
 769:./Drivers/STM32F1xx_HAL_Driver/Src/stm32f1xx_hal_tim.c ****   UNUSED(htim);
 770:./Drivers/STM32F1xx_HAL_Driver/Src/stm32f1xx_hal_tim.c **** 
 771:./Drivers/STM32F1xx_HAL_Driver/Src/stm32f1xx_hal_tim.c ****   /* NOTE : This function should not be modified, when the callback is needed,
 772:./Drivers/STM32F1xx_HAL_Driver/Src/stm32f1xx_hal_tim.c ****             the HAL_TIM_OC_MspDeInit could be implemented in the user file
 773:./Drivers/STM32F1xx_HAL_Driver/Src/stm32f1xx_hal_tim.c ****    */
 774:./Drivers/STM32F1xx_HAL_Driver/Src/stm32f1xx_hal_tim.c **** }
 1234              		.loc 1 774 1
 1235 0008 00BF     		nop
 1236 000a 0C37     		adds	r7, r7, #12
 1237              		.cfi_def_cfa_offset 4
 1238 000c BD46     		mov	sp, r7
 1239              		.cfi_def_cfa_register 13
 1240              		@ sp needed
 1241 000e 80BC     		pop	{r7}
 1242              		.cfi_restore 7
 1243              		.cfi_def_cfa_offset 0
 1244 0010 7047     		bx	lr
ARM GAS  C:\Users\phucd\AppData\Local\Temp\ccc4tAyX.s 			page 36


 1245              		.cfi_endproc
 1246              	.LFE78:
 1248              		.section	.text.HAL_TIM_OC_Start,"ax",%progbits
 1249              		.align	1
 1250              		.global	HAL_TIM_OC_Start
 1251              		.syntax unified
 1252              		.thumb
 1253              		.thumb_func
 1254              		.fpu softvfp
 1256              	HAL_TIM_OC_Start:
 1257              	.LFB79:
 775:./Drivers/STM32F1xx_HAL_Driver/Src/stm32f1xx_hal_tim.c **** 
 776:./Drivers/STM32F1xx_HAL_Driver/Src/stm32f1xx_hal_tim.c **** /**
 777:./Drivers/STM32F1xx_HAL_Driver/Src/stm32f1xx_hal_tim.c ****   * @brief  Starts the TIM Output Compare signal generation.
 778:./Drivers/STM32F1xx_HAL_Driver/Src/stm32f1xx_hal_tim.c ****   * @param  htim TIM Output Compare handle
 779:./Drivers/STM32F1xx_HAL_Driver/Src/stm32f1xx_hal_tim.c ****   * @param  Channel TIM Channel to be enabled
 780:./Drivers/STM32F1xx_HAL_Driver/Src/stm32f1xx_hal_tim.c ****   *          This parameter can be one of the following values:
 781:./Drivers/STM32F1xx_HAL_Driver/Src/stm32f1xx_hal_tim.c ****   *            @arg TIM_CHANNEL_1: TIM Channel 1 selected
 782:./Drivers/STM32F1xx_HAL_Driver/Src/stm32f1xx_hal_tim.c ****   *            @arg TIM_CHANNEL_2: TIM Channel 2 selected
 783:./Drivers/STM32F1xx_HAL_Driver/Src/stm32f1xx_hal_tim.c ****   *            @arg TIM_CHANNEL_3: TIM Channel 3 selected
 784:./Drivers/STM32F1xx_HAL_Driver/Src/stm32f1xx_hal_tim.c ****   *            @arg TIM_CHANNEL_4: TIM Channel 4 selected
 785:./Drivers/STM32F1xx_HAL_Driver/Src/stm32f1xx_hal_tim.c ****   * @retval HAL status
 786:./Drivers/STM32F1xx_HAL_Driver/Src/stm32f1xx_hal_tim.c ****   */
 787:./Drivers/STM32F1xx_HAL_Driver/Src/stm32f1xx_hal_tim.c **** HAL_StatusTypeDef HAL_TIM_OC_Start(TIM_HandleTypeDef *htim, uint32_t Channel)
 788:./Drivers/STM32F1xx_HAL_Driver/Src/stm32f1xx_hal_tim.c **** {
 1258              		.loc 1 788 1
 1259              		.cfi_startproc
 1260              		@ args = 0, pretend = 0, frame = 16
 1261              		@ frame_needed = 1, uses_anonymous_args = 0
 1262 0000 80B5     		push	{r7, lr}
 1263              		.cfi_def_cfa_offset 8
 1264              		.cfi_offset 7, -8
 1265              		.cfi_offset 14, -4
 1266 0002 84B0     		sub	sp, sp, #16
 1267              		.cfi_def_cfa_offset 24
 1268 0004 00AF     		add	r7, sp, #0
 1269              		.cfi_def_cfa_register 7
 1270 0006 7860     		str	r0, [r7, #4]
 1271 0008 3960     		str	r1, [r7]
 789:./Drivers/STM32F1xx_HAL_Driver/Src/stm32f1xx_hal_tim.c ****   uint32_t tmpsmcr;
 790:./Drivers/STM32F1xx_HAL_Driver/Src/stm32f1xx_hal_tim.c **** 
 791:./Drivers/STM32F1xx_HAL_Driver/Src/stm32f1xx_hal_tim.c ****   /* Check the parameters */
 792:./Drivers/STM32F1xx_HAL_Driver/Src/stm32f1xx_hal_tim.c ****   assert_param(IS_TIM_CCX_INSTANCE(htim->Instance, Channel));
 793:./Drivers/STM32F1xx_HAL_Driver/Src/stm32f1xx_hal_tim.c **** 
 794:./Drivers/STM32F1xx_HAL_Driver/Src/stm32f1xx_hal_tim.c ****   /* Check the TIM channel state */
 795:./Drivers/STM32F1xx_HAL_Driver/Src/stm32f1xx_hal_tim.c ****   if (TIM_CHANNEL_STATE_GET(htim, Channel) != HAL_TIM_CHANNEL_STATE_READY)
 1272              		.loc 1 795 44
 1273 000a 3B68     		ldr	r3, [r7]
 1274 000c 002B     		cmp	r3, #0
 1275 000e 09D1     		bne	.L61
 1276              		.loc 1 795 7 discriminator 1
 1277 0010 7B68     		ldr	r3, [r7, #4]
 1278 0012 93F83E30 		ldrb	r3, [r3, #62]
 1279 0016 DBB2     		uxtb	r3, r3
 1280              		.loc 1 795 44 discriminator 1
 1281 0018 012B     		cmp	r3, #1
 1282 001a 14BF     		ite	ne
ARM GAS  C:\Users\phucd\AppData\Local\Temp\ccc4tAyX.s 			page 37


 1283 001c 0123     		movne	r3, #1
 1284 001e 0023     		moveq	r3, #0
 1285 0020 DBB2     		uxtb	r3, r3
 1286 0022 22E0     		b	.L62
 1287              	.L61:
 1288              		.loc 1 795 44 is_stmt 0 discriminator 2
 1289 0024 3B68     		ldr	r3, [r7]
 1290 0026 042B     		cmp	r3, #4
 1291 0028 09D1     		bne	.L63
 1292              		.loc 1 795 7 is_stmt 1 discriminator 4
 1293 002a 7B68     		ldr	r3, [r7, #4]
 1294 002c 93F83F30 		ldrb	r3, [r3, #63]
 1295 0030 DBB2     		uxtb	r3, r3
 1296              		.loc 1 795 44 discriminator 4
 1297 0032 012B     		cmp	r3, #1
 1298 0034 14BF     		ite	ne
 1299 0036 0123     		movne	r3, #1
 1300 0038 0023     		moveq	r3, #0
 1301 003a DBB2     		uxtb	r3, r3
 1302 003c 15E0     		b	.L62
 1303              	.L63:
 1304              		.loc 1 795 44 is_stmt 0 discriminator 5
 1305 003e 3B68     		ldr	r3, [r7]
 1306 0040 082B     		cmp	r3, #8
 1307 0042 09D1     		bne	.L65
 1308              		.loc 1 795 7 is_stmt 1 discriminator 7
 1309 0044 7B68     		ldr	r3, [r7, #4]
 1310 0046 93F84030 		ldrb	r3, [r3, #64]
 1311 004a DBB2     		uxtb	r3, r3
 1312              		.loc 1 795 44 discriminator 7
 1313 004c 012B     		cmp	r3, #1
 1314 004e 14BF     		ite	ne
 1315 0050 0123     		movne	r3, #1
 1316 0052 0023     		moveq	r3, #0
 1317 0054 DBB2     		uxtb	r3, r3
 1318 0056 08E0     		b	.L62
 1319              	.L65:
 1320              		.loc 1 795 7 discriminator 8
 1321 0058 7B68     		ldr	r3, [r7, #4]
 1322 005a 93F84130 		ldrb	r3, [r3, #65]
 1323 005e DBB2     		uxtb	r3, r3
 1324              		.loc 1 795 44 discriminator 8
 1325 0060 012B     		cmp	r3, #1
 1326 0062 14BF     		ite	ne
 1327 0064 0123     		movne	r3, #1
 1328 0066 0023     		moveq	r3, #0
 1329 0068 DBB2     		uxtb	r3, r3
 1330              	.L62:
 1331              		.loc 1 795 6 discriminator 12
 1332 006a 002B     		cmp	r3, #0
 1333 006c 01D0     		beq	.L67
 796:./Drivers/STM32F1xx_HAL_Driver/Src/stm32f1xx_hal_tim.c ****   {
 797:./Drivers/STM32F1xx_HAL_Driver/Src/stm32f1xx_hal_tim.c ****     return HAL_ERROR;
 1334              		.loc 1 797 12
 1335 006e 0123     		movs	r3, #1
 1336 0070 5EE0     		b	.L68
 1337              	.L67:
ARM GAS  C:\Users\phucd\AppData\Local\Temp\ccc4tAyX.s 			page 38


 798:./Drivers/STM32F1xx_HAL_Driver/Src/stm32f1xx_hal_tim.c ****   }
 799:./Drivers/STM32F1xx_HAL_Driver/Src/stm32f1xx_hal_tim.c **** 
 800:./Drivers/STM32F1xx_HAL_Driver/Src/stm32f1xx_hal_tim.c ****   /* Set the TIM channel state */
 801:./Drivers/STM32F1xx_HAL_Driver/Src/stm32f1xx_hal_tim.c ****   TIM_CHANNEL_STATE_SET(htim, Channel, HAL_TIM_CHANNEL_STATE_BUSY);
 1338              		.loc 1 801 3
 1339 0072 3B68     		ldr	r3, [r7]
 1340 0074 002B     		cmp	r3, #0
 1341 0076 04D1     		bne	.L69
 1342              		.loc 1 801 3 is_stmt 0 discriminator 1
 1343 0078 7B68     		ldr	r3, [r7, #4]
 1344 007a 0222     		movs	r2, #2
 1345 007c 83F83E20 		strb	r2, [r3, #62]
 1346 0080 13E0     		b	.L70
 1347              	.L69:
 1348              		.loc 1 801 3 discriminator 2
 1349 0082 3B68     		ldr	r3, [r7]
 1350 0084 042B     		cmp	r3, #4
 1351 0086 04D1     		bne	.L71
 1352              		.loc 1 801 3 discriminator 3
 1353 0088 7B68     		ldr	r3, [r7, #4]
 1354 008a 0222     		movs	r2, #2
 1355 008c 83F83F20 		strb	r2, [r3, #63]
 1356 0090 0BE0     		b	.L70
 1357              	.L71:
 1358              		.loc 1 801 3 discriminator 4
 1359 0092 3B68     		ldr	r3, [r7]
 1360 0094 082B     		cmp	r3, #8
 1361 0096 04D1     		bne	.L73
 1362              		.loc 1 801 3 discriminator 6
 1363 0098 7B68     		ldr	r3, [r7, #4]
 1364 009a 0222     		movs	r2, #2
 1365 009c 83F84020 		strb	r2, [r3, #64]
 1366 00a0 03E0     		b	.L70
 1367              	.L73:
 1368              		.loc 1 801 3 discriminator 7
 1369 00a2 7B68     		ldr	r3, [r7, #4]
 1370 00a4 0222     		movs	r2, #2
 1371 00a6 83F84120 		strb	r2, [r3, #65]
 1372              	.L70:
 802:./Drivers/STM32F1xx_HAL_Driver/Src/stm32f1xx_hal_tim.c **** 
 803:./Drivers/STM32F1xx_HAL_Driver/Src/stm32f1xx_hal_tim.c ****   /* Enable the Output compare channel */
 804:./Drivers/STM32F1xx_HAL_Driver/Src/stm32f1xx_hal_tim.c ****   TIM_CCxChannelCmd(htim->Instance, Channel, TIM_CCx_ENABLE);
 1373              		.loc 1 804 3 is_stmt 1
 1374 00aa 7B68     		ldr	r3, [r7, #4]
 1375 00ac 1B68     		ldr	r3, [r3]
 1376 00ae 0122     		movs	r2, #1
 1377 00b0 3968     		ldr	r1, [r7]
 1378 00b2 1846     		mov	r0, r3
 1379 00b4 FFF7FEFF 		bl	TIM_CCxChannelCmd
 805:./Drivers/STM32F1xx_HAL_Driver/Src/stm32f1xx_hal_tim.c **** 
 806:./Drivers/STM32F1xx_HAL_Driver/Src/stm32f1xx_hal_tim.c ****   if (IS_TIM_BREAK_INSTANCE(htim->Instance) != RESET)
 1380              		.loc 1 806 7
 1381 00b8 7B68     		ldr	r3, [r7, #4]
 1382 00ba 1B68     		ldr	r3, [r3]
 1383              		.loc 1 806 6
 1384 00bc 1E4A     		ldr	r2, .L80
 1385 00be 9342     		cmp	r3, r2
ARM GAS  C:\Users\phucd\AppData\Local\Temp\ccc4tAyX.s 			page 39


 1386 00c0 07D1     		bne	.L75
 807:./Drivers/STM32F1xx_HAL_Driver/Src/stm32f1xx_hal_tim.c ****   {
 808:./Drivers/STM32F1xx_HAL_Driver/Src/stm32f1xx_hal_tim.c ****     /* Enable the main output */
 809:./Drivers/STM32F1xx_HAL_Driver/Src/stm32f1xx_hal_tim.c ****     __HAL_TIM_MOE_ENABLE(htim);
 1387              		.loc 1 809 5
 1388 00c2 7B68     		ldr	r3, [r7, #4]
 1389 00c4 1B68     		ldr	r3, [r3]
 1390 00c6 5A6C     		ldr	r2, [r3, #68]
 1391 00c8 7B68     		ldr	r3, [r7, #4]
 1392 00ca 1B68     		ldr	r3, [r3]
 1393 00cc 42F40042 		orr	r2, r2, #32768
 1394 00d0 5A64     		str	r2, [r3, #68]
 1395              	.L75:
 810:./Drivers/STM32F1xx_HAL_Driver/Src/stm32f1xx_hal_tim.c ****   }
 811:./Drivers/STM32F1xx_HAL_Driver/Src/stm32f1xx_hal_tim.c **** 
 812:./Drivers/STM32F1xx_HAL_Driver/Src/stm32f1xx_hal_tim.c ****   /* Enable the Peripheral, except in trigger mode where enable is automatically done with trigger 
 813:./Drivers/STM32F1xx_HAL_Driver/Src/stm32f1xx_hal_tim.c ****   if (IS_TIM_SLAVE_INSTANCE(htim->Instance))
 1396              		.loc 1 813 7
 1397 00d2 7B68     		ldr	r3, [r7, #4]
 1398 00d4 1B68     		ldr	r3, [r3]
 1399              		.loc 1 813 6
 1400 00d6 184A     		ldr	r2, .L80
 1401 00d8 9342     		cmp	r3, r2
 1402 00da 0ED0     		beq	.L76
 1403              		.loc 1 813 7 discriminator 1
 1404 00dc 7B68     		ldr	r3, [r7, #4]
 1405 00de 1B68     		ldr	r3, [r3]
 1406 00e0 B3F1804F 		cmp	r3, #1073741824
 1407 00e4 09D0     		beq	.L76
 1408              		.loc 1 813 7 is_stmt 0 discriminator 2
 1409 00e6 7B68     		ldr	r3, [r7, #4]
 1410 00e8 1B68     		ldr	r3, [r3]
 1411 00ea 144A     		ldr	r2, .L80+4
 1412 00ec 9342     		cmp	r3, r2
 1413 00ee 04D0     		beq	.L76
 1414              		.loc 1 813 7 discriminator 3
 1415 00f0 7B68     		ldr	r3, [r7, #4]
 1416 00f2 1B68     		ldr	r3, [r3]
 1417 00f4 124A     		ldr	r2, .L80+8
 1418 00f6 9342     		cmp	r3, r2
 1419 00f8 11D1     		bne	.L77
 1420              	.L76:
 814:./Drivers/STM32F1xx_HAL_Driver/Src/stm32f1xx_hal_tim.c ****   {
 815:./Drivers/STM32F1xx_HAL_Driver/Src/stm32f1xx_hal_tim.c ****     tmpsmcr = htim->Instance->SMCR & TIM_SMCR_SMS;
 1421              		.loc 1 815 19 is_stmt 1
 1422 00fa 7B68     		ldr	r3, [r7, #4]
 1423 00fc 1B68     		ldr	r3, [r3]
 1424              		.loc 1 815 29
 1425 00fe 9B68     		ldr	r3, [r3, #8]
 1426              		.loc 1 815 13
 1427 0100 03F00703 		and	r3, r3, #7
 1428 0104 FB60     		str	r3, [r7, #12]
 816:./Drivers/STM32F1xx_HAL_Driver/Src/stm32f1xx_hal_tim.c ****     if (!IS_TIM_SLAVEMODE_TRIGGER_ENABLED(tmpsmcr))
 1429              		.loc 1 816 8
 1430 0106 FB68     		ldr	r3, [r7, #12]
 1431 0108 062B     		cmp	r3, #6
 1432 010a 10D0     		beq	.L79
ARM GAS  C:\Users\phucd\AppData\Local\Temp\ccc4tAyX.s 			page 40


 817:./Drivers/STM32F1xx_HAL_Driver/Src/stm32f1xx_hal_tim.c ****     {
 818:./Drivers/STM32F1xx_HAL_Driver/Src/stm32f1xx_hal_tim.c ****       __HAL_TIM_ENABLE(htim);
 1433              		.loc 1 818 7
 1434 010c 7B68     		ldr	r3, [r7, #4]
 1435 010e 1B68     		ldr	r3, [r3]
 1436 0110 1A68     		ldr	r2, [r3]
 1437 0112 7B68     		ldr	r3, [r7, #4]
 1438 0114 1B68     		ldr	r3, [r3]
 1439 0116 42F00102 		orr	r2, r2, #1
 1440 011a 1A60     		str	r2, [r3]
 816:./Drivers/STM32F1xx_HAL_Driver/Src/stm32f1xx_hal_tim.c ****     if (!IS_TIM_SLAVEMODE_TRIGGER_ENABLED(tmpsmcr))
 1441              		.loc 1 816 8
 1442 011c 07E0     		b	.L79
 1443              	.L77:
 819:./Drivers/STM32F1xx_HAL_Driver/Src/stm32f1xx_hal_tim.c ****     }
 820:./Drivers/STM32F1xx_HAL_Driver/Src/stm32f1xx_hal_tim.c ****   }
 821:./Drivers/STM32F1xx_HAL_Driver/Src/stm32f1xx_hal_tim.c ****   else
 822:./Drivers/STM32F1xx_HAL_Driver/Src/stm32f1xx_hal_tim.c ****   {
 823:./Drivers/STM32F1xx_HAL_Driver/Src/stm32f1xx_hal_tim.c ****     __HAL_TIM_ENABLE(htim);
 1444              		.loc 1 823 5
 1445 011e 7B68     		ldr	r3, [r7, #4]
 1446 0120 1B68     		ldr	r3, [r3]
 1447 0122 1A68     		ldr	r2, [r3]
 1448 0124 7B68     		ldr	r3, [r7, #4]
 1449 0126 1B68     		ldr	r3, [r3]
 1450 0128 42F00102 		orr	r2, r2, #1
 1451 012c 1A60     		str	r2, [r3]
 1452              	.L79:
 824:./Drivers/STM32F1xx_HAL_Driver/Src/stm32f1xx_hal_tim.c ****   }
 825:./Drivers/STM32F1xx_HAL_Driver/Src/stm32f1xx_hal_tim.c **** 
 826:./Drivers/STM32F1xx_HAL_Driver/Src/stm32f1xx_hal_tim.c ****   /* Return function status */
 827:./Drivers/STM32F1xx_HAL_Driver/Src/stm32f1xx_hal_tim.c ****   return HAL_OK;
 1453              		.loc 1 827 10
 1454 012e 0023     		movs	r3, #0
 1455              	.L68:
 828:./Drivers/STM32F1xx_HAL_Driver/Src/stm32f1xx_hal_tim.c **** }
 1456              		.loc 1 828 1
 1457 0130 1846     		mov	r0, r3
 1458 0132 1037     		adds	r7, r7, #16
 1459              		.cfi_def_cfa_offset 8
 1460 0134 BD46     		mov	sp, r7
 1461              		.cfi_def_cfa_register 13
 1462              		@ sp needed
 1463 0136 80BD     		pop	{r7, pc}
 1464              	.L81:
 1465              		.align	2
 1466              	.L80:
 1467 0138 002C0140 		.word	1073818624
 1468 013c 00040040 		.word	1073742848
 1469 0140 00080040 		.word	1073743872
 1470              		.cfi_endproc
 1471              	.LFE79:
 1473              		.section	.text.HAL_TIM_OC_Stop,"ax",%progbits
 1474              		.align	1
 1475              		.global	HAL_TIM_OC_Stop
 1476              		.syntax unified
 1477              		.thumb
ARM GAS  C:\Users\phucd\AppData\Local\Temp\ccc4tAyX.s 			page 41


 1478              		.thumb_func
 1479              		.fpu softvfp
 1481              	HAL_TIM_OC_Stop:
 1482              	.LFB80:
 829:./Drivers/STM32F1xx_HAL_Driver/Src/stm32f1xx_hal_tim.c **** 
 830:./Drivers/STM32F1xx_HAL_Driver/Src/stm32f1xx_hal_tim.c **** /**
 831:./Drivers/STM32F1xx_HAL_Driver/Src/stm32f1xx_hal_tim.c ****   * @brief  Stops the TIM Output Compare signal generation.
 832:./Drivers/STM32F1xx_HAL_Driver/Src/stm32f1xx_hal_tim.c ****   * @param  htim TIM Output Compare handle
 833:./Drivers/STM32F1xx_HAL_Driver/Src/stm32f1xx_hal_tim.c ****   * @param  Channel TIM Channel to be disabled
 834:./Drivers/STM32F1xx_HAL_Driver/Src/stm32f1xx_hal_tim.c ****   *          This parameter can be one of the following values:
 835:./Drivers/STM32F1xx_HAL_Driver/Src/stm32f1xx_hal_tim.c ****   *            @arg TIM_CHANNEL_1: TIM Channel 1 selected
 836:./Drivers/STM32F1xx_HAL_Driver/Src/stm32f1xx_hal_tim.c ****   *            @arg TIM_CHANNEL_2: TIM Channel 2 selected
 837:./Drivers/STM32F1xx_HAL_Driver/Src/stm32f1xx_hal_tim.c ****   *            @arg TIM_CHANNEL_3: TIM Channel 3 selected
 838:./Drivers/STM32F1xx_HAL_Driver/Src/stm32f1xx_hal_tim.c ****   *            @arg TIM_CHANNEL_4: TIM Channel 4 selected
 839:./Drivers/STM32F1xx_HAL_Driver/Src/stm32f1xx_hal_tim.c ****   * @retval HAL status
 840:./Drivers/STM32F1xx_HAL_Driver/Src/stm32f1xx_hal_tim.c ****   */
 841:./Drivers/STM32F1xx_HAL_Driver/Src/stm32f1xx_hal_tim.c **** HAL_StatusTypeDef HAL_TIM_OC_Stop(TIM_HandleTypeDef *htim, uint32_t Channel)
 842:./Drivers/STM32F1xx_HAL_Driver/Src/stm32f1xx_hal_tim.c **** {
 1483              		.loc 1 842 1
 1484              		.cfi_startproc
 1485              		@ args = 0, pretend = 0, frame = 8
 1486              		@ frame_needed = 1, uses_anonymous_args = 0
 1487 0000 80B5     		push	{r7, lr}
 1488              		.cfi_def_cfa_offset 8
 1489              		.cfi_offset 7, -8
 1490              		.cfi_offset 14, -4
 1491 0002 82B0     		sub	sp, sp, #8
 1492              		.cfi_def_cfa_offset 16
 1493 0004 00AF     		add	r7, sp, #0
 1494              		.cfi_def_cfa_register 7
 1495 0006 7860     		str	r0, [r7, #4]
 1496 0008 3960     		str	r1, [r7]
 843:./Drivers/STM32F1xx_HAL_Driver/Src/stm32f1xx_hal_tim.c ****   /* Check the parameters */
 844:./Drivers/STM32F1xx_HAL_Driver/Src/stm32f1xx_hal_tim.c ****   assert_param(IS_TIM_CCX_INSTANCE(htim->Instance, Channel));
 845:./Drivers/STM32F1xx_HAL_Driver/Src/stm32f1xx_hal_tim.c **** 
 846:./Drivers/STM32F1xx_HAL_Driver/Src/stm32f1xx_hal_tim.c ****   /* Disable the Output compare channel */
 847:./Drivers/STM32F1xx_HAL_Driver/Src/stm32f1xx_hal_tim.c ****   TIM_CCxChannelCmd(htim->Instance, Channel, TIM_CCx_DISABLE);
 1497              		.loc 1 847 3
 1498 000a 7B68     		ldr	r3, [r7, #4]
 1499 000c 1B68     		ldr	r3, [r3]
 1500 000e 0022     		movs	r2, #0
 1501 0010 3968     		ldr	r1, [r7]
 1502 0012 1846     		mov	r0, r3
 1503 0014 FFF7FEFF 		bl	TIM_CCxChannelCmd
 848:./Drivers/STM32F1xx_HAL_Driver/Src/stm32f1xx_hal_tim.c **** 
 849:./Drivers/STM32F1xx_HAL_Driver/Src/stm32f1xx_hal_tim.c ****   if (IS_TIM_BREAK_INSTANCE(htim->Instance) != RESET)
 1504              		.loc 1 849 7
 1505 0018 7B68     		ldr	r3, [r7, #4]
 1506 001a 1B68     		ldr	r3, [r3]
 1507              		.loc 1 849 6
 1508 001c 294A     		ldr	r2, .L92
 1509 001e 9342     		cmp	r3, r2
 1510 0020 17D1     		bne	.L83
 850:./Drivers/STM32F1xx_HAL_Driver/Src/stm32f1xx_hal_tim.c ****   {
 851:./Drivers/STM32F1xx_HAL_Driver/Src/stm32f1xx_hal_tim.c ****     /* Disable the Main Output */
 852:./Drivers/STM32F1xx_HAL_Driver/Src/stm32f1xx_hal_tim.c ****     __HAL_TIM_MOE_DISABLE(htim);
 1511              		.loc 1 852 5
ARM GAS  C:\Users\phucd\AppData\Local\Temp\ccc4tAyX.s 			page 42


 1512 0022 7B68     		ldr	r3, [r7, #4]
 1513 0024 1B68     		ldr	r3, [r3]
 1514 0026 1A6A     		ldr	r2, [r3, #32]
 1515 0028 41F21113 		movw	r3, #4369
 1516 002c 1340     		ands	r3, r3, r2
 1517 002e 002B     		cmp	r3, #0
 1518 0030 0FD1     		bne	.L83
 1519              		.loc 1 852 5 is_stmt 0 discriminator 1
 1520 0032 7B68     		ldr	r3, [r7, #4]
 1521 0034 1B68     		ldr	r3, [r3]
 1522 0036 1A6A     		ldr	r2, [r3, #32]
 1523 0038 40F24443 		movw	r3, #1092
 1524 003c 1340     		ands	r3, r3, r2
 1525 003e 002B     		cmp	r3, #0
 1526 0040 07D1     		bne	.L83
 1527              		.loc 1 852 5 discriminator 2
 1528 0042 7B68     		ldr	r3, [r7, #4]
 1529 0044 1B68     		ldr	r3, [r3]
 1530 0046 5A6C     		ldr	r2, [r3, #68]
 1531 0048 7B68     		ldr	r3, [r7, #4]
 1532 004a 1B68     		ldr	r3, [r3]
 1533 004c 22F40042 		bic	r2, r2, #32768
 1534 0050 5A64     		str	r2, [r3, #68]
 1535              	.L83:
 853:./Drivers/STM32F1xx_HAL_Driver/Src/stm32f1xx_hal_tim.c ****   }
 854:./Drivers/STM32F1xx_HAL_Driver/Src/stm32f1xx_hal_tim.c **** 
 855:./Drivers/STM32F1xx_HAL_Driver/Src/stm32f1xx_hal_tim.c ****   /* Disable the Peripheral */
 856:./Drivers/STM32F1xx_HAL_Driver/Src/stm32f1xx_hal_tim.c ****   __HAL_TIM_DISABLE(htim);
 1536              		.loc 1 856 3 is_stmt 1
 1537 0052 7B68     		ldr	r3, [r7, #4]
 1538 0054 1B68     		ldr	r3, [r3]
 1539 0056 1A6A     		ldr	r2, [r3, #32]
 1540 0058 41F21113 		movw	r3, #4369
 1541 005c 1340     		ands	r3, r3, r2
 1542 005e 002B     		cmp	r3, #0
 1543 0060 0FD1     		bne	.L84
 1544              		.loc 1 856 3 is_stmt 0 discriminator 1
 1545 0062 7B68     		ldr	r3, [r7, #4]
 1546 0064 1B68     		ldr	r3, [r3]
 1547 0066 1A6A     		ldr	r2, [r3, #32]
 1548 0068 40F24443 		movw	r3, #1092
 1549 006c 1340     		ands	r3, r3, r2
 1550 006e 002B     		cmp	r3, #0
 1551 0070 07D1     		bne	.L84
 1552              		.loc 1 856 3 discriminator 2
 1553 0072 7B68     		ldr	r3, [r7, #4]
 1554 0074 1B68     		ldr	r3, [r3]
 1555 0076 1A68     		ldr	r2, [r3]
 1556 0078 7B68     		ldr	r3, [r7, #4]
 1557 007a 1B68     		ldr	r3, [r3]
 1558 007c 22F00102 		bic	r2, r2, #1
 1559 0080 1A60     		str	r2, [r3]
 1560              	.L84:
 857:./Drivers/STM32F1xx_HAL_Driver/Src/stm32f1xx_hal_tim.c **** 
 858:./Drivers/STM32F1xx_HAL_Driver/Src/stm32f1xx_hal_tim.c ****   /* Set the TIM channel state */
 859:./Drivers/STM32F1xx_HAL_Driver/Src/stm32f1xx_hal_tim.c ****   TIM_CHANNEL_STATE_SET(htim, Channel, HAL_TIM_CHANNEL_STATE_READY);
 1561              		.loc 1 859 3 is_stmt 1
ARM GAS  C:\Users\phucd\AppData\Local\Temp\ccc4tAyX.s 			page 43


 1562 0082 3B68     		ldr	r3, [r7]
 1563 0084 002B     		cmp	r3, #0
 1564 0086 04D1     		bne	.L85
 1565              		.loc 1 859 3 is_stmt 0 discriminator 1
 1566 0088 7B68     		ldr	r3, [r7, #4]
 1567 008a 0122     		movs	r2, #1
 1568 008c 83F83E20 		strb	r2, [r3, #62]
 1569 0090 13E0     		b	.L86
 1570              	.L85:
 1571              		.loc 1 859 3 discriminator 2
 1572 0092 3B68     		ldr	r3, [r7]
 1573 0094 042B     		cmp	r3, #4
 1574 0096 04D1     		bne	.L87
 1575              		.loc 1 859 3 discriminator 3
 1576 0098 7B68     		ldr	r3, [r7, #4]
 1577 009a 0122     		movs	r2, #1
 1578 009c 83F83F20 		strb	r2, [r3, #63]
 1579 00a0 0BE0     		b	.L86
 1580              	.L87:
 1581              		.loc 1 859 3 discriminator 4
 1582 00a2 3B68     		ldr	r3, [r7]
 1583 00a4 082B     		cmp	r3, #8
 1584 00a6 04D1     		bne	.L89
 1585              		.loc 1 859 3 discriminator 6
 1586 00a8 7B68     		ldr	r3, [r7, #4]
 1587 00aa 0122     		movs	r2, #1
 1588 00ac 83F84020 		strb	r2, [r3, #64]
 1589 00b0 03E0     		b	.L86
 1590              	.L89:
 1591              		.loc 1 859 3 discriminator 7
 1592 00b2 7B68     		ldr	r3, [r7, #4]
 1593 00b4 0122     		movs	r2, #1
 1594 00b6 83F84120 		strb	r2, [r3, #65]
 1595              	.L86:
 860:./Drivers/STM32F1xx_HAL_Driver/Src/stm32f1xx_hal_tim.c **** 
 861:./Drivers/STM32F1xx_HAL_Driver/Src/stm32f1xx_hal_tim.c ****   /* Return function status */
 862:./Drivers/STM32F1xx_HAL_Driver/Src/stm32f1xx_hal_tim.c ****   return HAL_OK;
 1596              		.loc 1 862 10 is_stmt 1
 1597 00ba 0023     		movs	r3, #0
 863:./Drivers/STM32F1xx_HAL_Driver/Src/stm32f1xx_hal_tim.c **** }
 1598              		.loc 1 863 1
 1599 00bc 1846     		mov	r0, r3
 1600 00be 0837     		adds	r7, r7, #8
 1601              		.cfi_def_cfa_offset 8
 1602 00c0 BD46     		mov	sp, r7
 1603              		.cfi_def_cfa_register 13
 1604              		@ sp needed
 1605 00c2 80BD     		pop	{r7, pc}
 1606              	.L93:
 1607              		.align	2
 1608              	.L92:
 1609 00c4 002C0140 		.word	1073818624
 1610              		.cfi_endproc
 1611              	.LFE80:
 1613              		.section	.text.HAL_TIM_OC_Start_IT,"ax",%progbits
 1614              		.align	1
 1615              		.global	HAL_TIM_OC_Start_IT
ARM GAS  C:\Users\phucd\AppData\Local\Temp\ccc4tAyX.s 			page 44


 1616              		.syntax unified
 1617              		.thumb
 1618              		.thumb_func
 1619              		.fpu softvfp
 1621              	HAL_TIM_OC_Start_IT:
 1622              	.LFB81:
 864:./Drivers/STM32F1xx_HAL_Driver/Src/stm32f1xx_hal_tim.c **** 
 865:./Drivers/STM32F1xx_HAL_Driver/Src/stm32f1xx_hal_tim.c **** /**
 866:./Drivers/STM32F1xx_HAL_Driver/Src/stm32f1xx_hal_tim.c ****   * @brief  Starts the TIM Output Compare signal generation in interrupt mode.
 867:./Drivers/STM32F1xx_HAL_Driver/Src/stm32f1xx_hal_tim.c ****   * @param  htim TIM Output Compare handle
 868:./Drivers/STM32F1xx_HAL_Driver/Src/stm32f1xx_hal_tim.c ****   * @param  Channel TIM Channel to be enabled
 869:./Drivers/STM32F1xx_HAL_Driver/Src/stm32f1xx_hal_tim.c ****   *          This parameter can be one of the following values:
 870:./Drivers/STM32F1xx_HAL_Driver/Src/stm32f1xx_hal_tim.c ****   *            @arg TIM_CHANNEL_1: TIM Channel 1 selected
 871:./Drivers/STM32F1xx_HAL_Driver/Src/stm32f1xx_hal_tim.c ****   *            @arg TIM_CHANNEL_2: TIM Channel 2 selected
 872:./Drivers/STM32F1xx_HAL_Driver/Src/stm32f1xx_hal_tim.c ****   *            @arg TIM_CHANNEL_3: TIM Channel 3 selected
 873:./Drivers/STM32F1xx_HAL_Driver/Src/stm32f1xx_hal_tim.c ****   *            @arg TIM_CHANNEL_4: TIM Channel 4 selected
 874:./Drivers/STM32F1xx_HAL_Driver/Src/stm32f1xx_hal_tim.c ****   * @retval HAL status
 875:./Drivers/STM32F1xx_HAL_Driver/Src/stm32f1xx_hal_tim.c ****   */
 876:./Drivers/STM32F1xx_HAL_Driver/Src/stm32f1xx_hal_tim.c **** HAL_StatusTypeDef HAL_TIM_OC_Start_IT(TIM_HandleTypeDef *htim, uint32_t Channel)
 877:./Drivers/STM32F1xx_HAL_Driver/Src/stm32f1xx_hal_tim.c **** {
 1623              		.loc 1 877 1
 1624              		.cfi_startproc
 1625              		@ args = 0, pretend = 0, frame = 16
 1626              		@ frame_needed = 1, uses_anonymous_args = 0
 1627 0000 80B5     		push	{r7, lr}
 1628              		.cfi_def_cfa_offset 8
 1629              		.cfi_offset 7, -8
 1630              		.cfi_offset 14, -4
 1631 0002 84B0     		sub	sp, sp, #16
 1632              		.cfi_def_cfa_offset 24
 1633 0004 00AF     		add	r7, sp, #0
 1634              		.cfi_def_cfa_register 7
 1635 0006 7860     		str	r0, [r7, #4]
 1636 0008 3960     		str	r1, [r7]
 878:./Drivers/STM32F1xx_HAL_Driver/Src/stm32f1xx_hal_tim.c ****   uint32_t tmpsmcr;
 879:./Drivers/STM32F1xx_HAL_Driver/Src/stm32f1xx_hal_tim.c **** 
 880:./Drivers/STM32F1xx_HAL_Driver/Src/stm32f1xx_hal_tim.c ****   /* Check the parameters */
 881:./Drivers/STM32F1xx_HAL_Driver/Src/stm32f1xx_hal_tim.c ****   assert_param(IS_TIM_CCX_INSTANCE(htim->Instance, Channel));
 882:./Drivers/STM32F1xx_HAL_Driver/Src/stm32f1xx_hal_tim.c **** 
 883:./Drivers/STM32F1xx_HAL_Driver/Src/stm32f1xx_hal_tim.c ****   /* Check the TIM channel state */
 884:./Drivers/STM32F1xx_HAL_Driver/Src/stm32f1xx_hal_tim.c ****   if (TIM_CHANNEL_STATE_GET(htim, Channel) != HAL_TIM_CHANNEL_STATE_READY)
 1637              		.loc 1 884 44
 1638 000a 3B68     		ldr	r3, [r7]
 1639 000c 002B     		cmp	r3, #0
 1640 000e 09D1     		bne	.L95
 1641              		.loc 1 884 7 discriminator 1
 1642 0010 7B68     		ldr	r3, [r7, #4]
 1643 0012 93F83E30 		ldrb	r3, [r3, #62]
 1644 0016 DBB2     		uxtb	r3, r3
 1645              		.loc 1 884 44 discriminator 1
 1646 0018 012B     		cmp	r3, #1
 1647 001a 14BF     		ite	ne
 1648 001c 0123     		movne	r3, #1
 1649 001e 0023     		moveq	r3, #0
 1650 0020 DBB2     		uxtb	r3, r3
 1651 0022 22E0     		b	.L96
 1652              	.L95:
ARM GAS  C:\Users\phucd\AppData\Local\Temp\ccc4tAyX.s 			page 45


 1653              		.loc 1 884 44 is_stmt 0 discriminator 2
 1654 0024 3B68     		ldr	r3, [r7]
 1655 0026 042B     		cmp	r3, #4
 1656 0028 09D1     		bne	.L97
 1657              		.loc 1 884 7 is_stmt 1 discriminator 4
 1658 002a 7B68     		ldr	r3, [r7, #4]
 1659 002c 93F83F30 		ldrb	r3, [r3, #63]
 1660 0030 DBB2     		uxtb	r3, r3
 1661              		.loc 1 884 44 discriminator 4
 1662 0032 012B     		cmp	r3, #1
 1663 0034 14BF     		ite	ne
 1664 0036 0123     		movne	r3, #1
 1665 0038 0023     		moveq	r3, #0
 1666 003a DBB2     		uxtb	r3, r3
 1667 003c 15E0     		b	.L96
 1668              	.L97:
 1669              		.loc 1 884 44 is_stmt 0 discriminator 5
 1670 003e 3B68     		ldr	r3, [r7]
 1671 0040 082B     		cmp	r3, #8
 1672 0042 09D1     		bne	.L99
 1673              		.loc 1 884 7 is_stmt 1 discriminator 7
 1674 0044 7B68     		ldr	r3, [r7, #4]
 1675 0046 93F84030 		ldrb	r3, [r3, #64]
 1676 004a DBB2     		uxtb	r3, r3
 1677              		.loc 1 884 44 discriminator 7
 1678 004c 012B     		cmp	r3, #1
 1679 004e 14BF     		ite	ne
 1680 0050 0123     		movne	r3, #1
 1681 0052 0023     		moveq	r3, #0
 1682 0054 DBB2     		uxtb	r3, r3
 1683 0056 08E0     		b	.L96
 1684              	.L99:
 1685              		.loc 1 884 7 discriminator 8
 1686 0058 7B68     		ldr	r3, [r7, #4]
 1687 005a 93F84130 		ldrb	r3, [r3, #65]
 1688 005e DBB2     		uxtb	r3, r3
 1689              		.loc 1 884 44 discriminator 8
 1690 0060 012B     		cmp	r3, #1
 1691 0062 14BF     		ite	ne
 1692 0064 0123     		movne	r3, #1
 1693 0066 0023     		moveq	r3, #0
 1694 0068 DBB2     		uxtb	r3, r3
 1695              	.L96:
 1696              		.loc 1 884 6 discriminator 12
 1697 006a 002B     		cmp	r3, #0
 1698 006c 01D0     		beq	.L101
 885:./Drivers/STM32F1xx_HAL_Driver/Src/stm32f1xx_hal_tim.c ****   {
 886:./Drivers/STM32F1xx_HAL_Driver/Src/stm32f1xx_hal_tim.c ****     return HAL_ERROR;
 1699              		.loc 1 886 12
 1700 006e 0123     		movs	r3, #1
 1701 0070 A4E0     		b	.L102
 1702              	.L101:
 887:./Drivers/STM32F1xx_HAL_Driver/Src/stm32f1xx_hal_tim.c ****   }
 888:./Drivers/STM32F1xx_HAL_Driver/Src/stm32f1xx_hal_tim.c **** 
 889:./Drivers/STM32F1xx_HAL_Driver/Src/stm32f1xx_hal_tim.c ****   /* Set the TIM channel state */
 890:./Drivers/STM32F1xx_HAL_Driver/Src/stm32f1xx_hal_tim.c ****   TIM_CHANNEL_STATE_SET(htim, Channel, HAL_TIM_CHANNEL_STATE_BUSY);
 1703              		.loc 1 890 3
ARM GAS  C:\Users\phucd\AppData\Local\Temp\ccc4tAyX.s 			page 46


 1704 0072 3B68     		ldr	r3, [r7]
 1705 0074 002B     		cmp	r3, #0
 1706 0076 04D1     		bne	.L103
 1707              		.loc 1 890 3 is_stmt 0 discriminator 1
 1708 0078 7B68     		ldr	r3, [r7, #4]
 1709 007a 0222     		movs	r2, #2
 1710 007c 83F83E20 		strb	r2, [r3, #62]
 1711 0080 13E0     		b	.L104
 1712              	.L103:
 1713              		.loc 1 890 3 discriminator 2
 1714 0082 3B68     		ldr	r3, [r7]
 1715 0084 042B     		cmp	r3, #4
 1716 0086 04D1     		bne	.L105
 1717              		.loc 1 890 3 discriminator 3
 1718 0088 7B68     		ldr	r3, [r7, #4]
 1719 008a 0222     		movs	r2, #2
 1720 008c 83F83F20 		strb	r2, [r3, #63]
 1721 0090 0BE0     		b	.L104
 1722              	.L105:
 1723              		.loc 1 890 3 discriminator 4
 1724 0092 3B68     		ldr	r3, [r7]
 1725 0094 082B     		cmp	r3, #8
 1726 0096 04D1     		bne	.L107
 1727              		.loc 1 890 3 discriminator 6
 1728 0098 7B68     		ldr	r3, [r7, #4]
 1729 009a 0222     		movs	r2, #2
 1730 009c 83F84020 		strb	r2, [r3, #64]
 1731 00a0 03E0     		b	.L104
 1732              	.L107:
 1733              		.loc 1 890 3 discriminator 7
 1734 00a2 7B68     		ldr	r3, [r7, #4]
 1735 00a4 0222     		movs	r2, #2
 1736 00a6 83F84120 		strb	r2, [r3, #65]
 1737              	.L104:
 1738 00aa 3B68     		ldr	r3, [r7]
 1739 00ac 0C2B     		cmp	r3, #12
 1740 00ae 41D8     		bhi	.L121
 1741 00b0 01A2     		adr	r2, .L111
 1742 00b2 52F823F0 		ldr	pc, [r2, r3, lsl #2]
 1743 00b6 00BF     		.p2align 2
 1744              	.L111:
 1745 00b8 ED000000 		.word	.L114+1
 1746 00bc 35010000 		.word	.L121+1
 1747 00c0 35010000 		.word	.L121+1
 1748 00c4 35010000 		.word	.L121+1
 1749 00c8 FF000000 		.word	.L113+1
 1750 00cc 35010000 		.word	.L121+1
 1751 00d0 35010000 		.word	.L121+1
 1752 00d4 35010000 		.word	.L121+1
 1753 00d8 11010000 		.word	.L112+1
 1754 00dc 35010000 		.word	.L121+1
 1755 00e0 35010000 		.word	.L121+1
 1756 00e4 35010000 		.word	.L121+1
 1757 00e8 23010000 		.word	.L110+1
 1758              		.p2align 1
 1759              	.L114:
 891:./Drivers/STM32F1xx_HAL_Driver/Src/stm32f1xx_hal_tim.c **** 
ARM GAS  C:\Users\phucd\AppData\Local\Temp\ccc4tAyX.s 			page 47


 892:./Drivers/STM32F1xx_HAL_Driver/Src/stm32f1xx_hal_tim.c ****   switch (Channel)
 893:./Drivers/STM32F1xx_HAL_Driver/Src/stm32f1xx_hal_tim.c ****   {
 894:./Drivers/STM32F1xx_HAL_Driver/Src/stm32f1xx_hal_tim.c ****     case TIM_CHANNEL_1:
 895:./Drivers/STM32F1xx_HAL_Driver/Src/stm32f1xx_hal_tim.c ****     {
 896:./Drivers/STM32F1xx_HAL_Driver/Src/stm32f1xx_hal_tim.c ****       /* Enable the TIM Capture/Compare 1 interrupt */
 897:./Drivers/STM32F1xx_HAL_Driver/Src/stm32f1xx_hal_tim.c ****       __HAL_TIM_ENABLE_IT(htim, TIM_IT_CC1);
 1760              		.loc 1 897 7 is_stmt 1
 1761 00ec 7B68     		ldr	r3, [r7, #4]
 1762 00ee 1B68     		ldr	r3, [r3]
 1763 00f0 DA68     		ldr	r2, [r3, #12]
 1764 00f2 7B68     		ldr	r3, [r7, #4]
 1765 00f4 1B68     		ldr	r3, [r3]
 1766 00f6 42F00202 		orr	r2, r2, #2
 1767 00fa DA60     		str	r2, [r3, #12]
 898:./Drivers/STM32F1xx_HAL_Driver/Src/stm32f1xx_hal_tim.c ****       break;
 1768              		.loc 1 898 7
 1769 00fc 1BE0     		b	.L115
 1770              	.L113:
 899:./Drivers/STM32F1xx_HAL_Driver/Src/stm32f1xx_hal_tim.c ****     }
 900:./Drivers/STM32F1xx_HAL_Driver/Src/stm32f1xx_hal_tim.c **** 
 901:./Drivers/STM32F1xx_HAL_Driver/Src/stm32f1xx_hal_tim.c ****     case TIM_CHANNEL_2:
 902:./Drivers/STM32F1xx_HAL_Driver/Src/stm32f1xx_hal_tim.c ****     {
 903:./Drivers/STM32F1xx_HAL_Driver/Src/stm32f1xx_hal_tim.c ****       /* Enable the TIM Capture/Compare 2 interrupt */
 904:./Drivers/STM32F1xx_HAL_Driver/Src/stm32f1xx_hal_tim.c ****       __HAL_TIM_ENABLE_IT(htim, TIM_IT_CC2);
 1771              		.loc 1 904 7
 1772 00fe 7B68     		ldr	r3, [r7, #4]
 1773 0100 1B68     		ldr	r3, [r3]
 1774 0102 DA68     		ldr	r2, [r3, #12]
 1775 0104 7B68     		ldr	r3, [r7, #4]
 1776 0106 1B68     		ldr	r3, [r3]
 1777 0108 42F00402 		orr	r2, r2, #4
 1778 010c DA60     		str	r2, [r3, #12]
 905:./Drivers/STM32F1xx_HAL_Driver/Src/stm32f1xx_hal_tim.c ****       break;
 1779              		.loc 1 905 7
 1780 010e 12E0     		b	.L115
 1781              	.L112:
 906:./Drivers/STM32F1xx_HAL_Driver/Src/stm32f1xx_hal_tim.c ****     }
 907:./Drivers/STM32F1xx_HAL_Driver/Src/stm32f1xx_hal_tim.c **** 
 908:./Drivers/STM32F1xx_HAL_Driver/Src/stm32f1xx_hal_tim.c ****     case TIM_CHANNEL_3:
 909:./Drivers/STM32F1xx_HAL_Driver/Src/stm32f1xx_hal_tim.c ****     {
 910:./Drivers/STM32F1xx_HAL_Driver/Src/stm32f1xx_hal_tim.c ****       /* Enable the TIM Capture/Compare 3 interrupt */
 911:./Drivers/STM32F1xx_HAL_Driver/Src/stm32f1xx_hal_tim.c ****       __HAL_TIM_ENABLE_IT(htim, TIM_IT_CC3);
 1782              		.loc 1 911 7
 1783 0110 7B68     		ldr	r3, [r7, #4]
 1784 0112 1B68     		ldr	r3, [r3]
 1785 0114 DA68     		ldr	r2, [r3, #12]
 1786 0116 7B68     		ldr	r3, [r7, #4]
 1787 0118 1B68     		ldr	r3, [r3]
 1788 011a 42F00802 		orr	r2, r2, #8
 1789 011e DA60     		str	r2, [r3, #12]
 912:./Drivers/STM32F1xx_HAL_Driver/Src/stm32f1xx_hal_tim.c ****       break;
 1790              		.loc 1 912 7
 1791 0120 09E0     		b	.L115
 1792              	.L110:
 913:./Drivers/STM32F1xx_HAL_Driver/Src/stm32f1xx_hal_tim.c ****     }
 914:./Drivers/STM32F1xx_HAL_Driver/Src/stm32f1xx_hal_tim.c **** 
 915:./Drivers/STM32F1xx_HAL_Driver/Src/stm32f1xx_hal_tim.c ****     case TIM_CHANNEL_4:
ARM GAS  C:\Users\phucd\AppData\Local\Temp\ccc4tAyX.s 			page 48


 916:./Drivers/STM32F1xx_HAL_Driver/Src/stm32f1xx_hal_tim.c ****     {
 917:./Drivers/STM32F1xx_HAL_Driver/Src/stm32f1xx_hal_tim.c ****       /* Enable the TIM Capture/Compare 4 interrupt */
 918:./Drivers/STM32F1xx_HAL_Driver/Src/stm32f1xx_hal_tim.c ****       __HAL_TIM_ENABLE_IT(htim, TIM_IT_CC4);
 1793              		.loc 1 918 7
 1794 0122 7B68     		ldr	r3, [r7, #4]
 1795 0124 1B68     		ldr	r3, [r3]
 1796 0126 DA68     		ldr	r2, [r3, #12]
 1797 0128 7B68     		ldr	r3, [r7, #4]
 1798 012a 1B68     		ldr	r3, [r3]
 1799 012c 42F01002 		orr	r2, r2, #16
 1800 0130 DA60     		str	r2, [r3, #12]
 919:./Drivers/STM32F1xx_HAL_Driver/Src/stm32f1xx_hal_tim.c ****       break;
 1801              		.loc 1 919 7
 1802 0132 00E0     		b	.L115
 1803              	.L121:
 920:./Drivers/STM32F1xx_HAL_Driver/Src/stm32f1xx_hal_tim.c ****     }
 921:./Drivers/STM32F1xx_HAL_Driver/Src/stm32f1xx_hal_tim.c **** 
 922:./Drivers/STM32F1xx_HAL_Driver/Src/stm32f1xx_hal_tim.c ****     default:
 923:./Drivers/STM32F1xx_HAL_Driver/Src/stm32f1xx_hal_tim.c ****       break;
 1804              		.loc 1 923 7
 1805 0134 00BF     		nop
 1806              	.L115:
 924:./Drivers/STM32F1xx_HAL_Driver/Src/stm32f1xx_hal_tim.c ****   }
 925:./Drivers/STM32F1xx_HAL_Driver/Src/stm32f1xx_hal_tim.c **** 
 926:./Drivers/STM32F1xx_HAL_Driver/Src/stm32f1xx_hal_tim.c ****   /* Enable the Output compare channel */
 927:./Drivers/STM32F1xx_HAL_Driver/Src/stm32f1xx_hal_tim.c ****   TIM_CCxChannelCmd(htim->Instance, Channel, TIM_CCx_ENABLE);
 1807              		.loc 1 927 3
 1808 0136 7B68     		ldr	r3, [r7, #4]
 1809 0138 1B68     		ldr	r3, [r3]
 1810 013a 0122     		movs	r2, #1
 1811 013c 3968     		ldr	r1, [r7]
 1812 013e 1846     		mov	r0, r3
 1813 0140 FFF7FEFF 		bl	TIM_CCxChannelCmd
 928:./Drivers/STM32F1xx_HAL_Driver/Src/stm32f1xx_hal_tim.c **** 
 929:./Drivers/STM32F1xx_HAL_Driver/Src/stm32f1xx_hal_tim.c ****   if (IS_TIM_BREAK_INSTANCE(htim->Instance) != RESET)
 1814              		.loc 1 929 7
 1815 0144 7B68     		ldr	r3, [r7, #4]
 1816 0146 1B68     		ldr	r3, [r3]
 1817              		.loc 1 929 6
 1818 0148 1E4A     		ldr	r2, .L122
 1819 014a 9342     		cmp	r3, r2
 1820 014c 07D1     		bne	.L116
 930:./Drivers/STM32F1xx_HAL_Driver/Src/stm32f1xx_hal_tim.c ****   {
 931:./Drivers/STM32F1xx_HAL_Driver/Src/stm32f1xx_hal_tim.c ****     /* Enable the main output */
 932:./Drivers/STM32F1xx_HAL_Driver/Src/stm32f1xx_hal_tim.c ****     __HAL_TIM_MOE_ENABLE(htim);
 1821              		.loc 1 932 5
 1822 014e 7B68     		ldr	r3, [r7, #4]
 1823 0150 1B68     		ldr	r3, [r3]
 1824 0152 5A6C     		ldr	r2, [r3, #68]
 1825 0154 7B68     		ldr	r3, [r7, #4]
 1826 0156 1B68     		ldr	r3, [r3]
 1827 0158 42F40042 		orr	r2, r2, #32768
 1828 015c 5A64     		str	r2, [r3, #68]
 1829              	.L116:
 933:./Drivers/STM32F1xx_HAL_Driver/Src/stm32f1xx_hal_tim.c ****   }
 934:./Drivers/STM32F1xx_HAL_Driver/Src/stm32f1xx_hal_tim.c **** 
 935:./Drivers/STM32F1xx_HAL_Driver/Src/stm32f1xx_hal_tim.c ****   /* Enable the Peripheral, except in trigger mode where enable is automatically done with trigger 
ARM GAS  C:\Users\phucd\AppData\Local\Temp\ccc4tAyX.s 			page 49


 936:./Drivers/STM32F1xx_HAL_Driver/Src/stm32f1xx_hal_tim.c ****   if (IS_TIM_SLAVE_INSTANCE(htim->Instance))
 1830              		.loc 1 936 7
 1831 015e 7B68     		ldr	r3, [r7, #4]
 1832 0160 1B68     		ldr	r3, [r3]
 1833              		.loc 1 936 6
 1834 0162 184A     		ldr	r2, .L122
 1835 0164 9342     		cmp	r3, r2
 1836 0166 0ED0     		beq	.L117
 1837              		.loc 1 936 7 discriminator 1
 1838 0168 7B68     		ldr	r3, [r7, #4]
 1839 016a 1B68     		ldr	r3, [r3]
 1840 016c B3F1804F 		cmp	r3, #1073741824
 1841 0170 09D0     		beq	.L117
 1842              		.loc 1 936 7 is_stmt 0 discriminator 2
 1843 0172 7B68     		ldr	r3, [r7, #4]
 1844 0174 1B68     		ldr	r3, [r3]
 1845 0176 144A     		ldr	r2, .L122+4
 1846 0178 9342     		cmp	r3, r2
 1847 017a 04D0     		beq	.L117
 1848              		.loc 1 936 7 discriminator 3
 1849 017c 7B68     		ldr	r3, [r7, #4]
 1850 017e 1B68     		ldr	r3, [r3]
 1851 0180 124A     		ldr	r2, .L122+8
 1852 0182 9342     		cmp	r3, r2
 1853 0184 11D1     		bne	.L118
 1854              	.L117:
 937:./Drivers/STM32F1xx_HAL_Driver/Src/stm32f1xx_hal_tim.c ****   {
 938:./Drivers/STM32F1xx_HAL_Driver/Src/stm32f1xx_hal_tim.c ****     tmpsmcr = htim->Instance->SMCR & TIM_SMCR_SMS;
 1855              		.loc 1 938 19 is_stmt 1
 1856 0186 7B68     		ldr	r3, [r7, #4]
 1857 0188 1B68     		ldr	r3, [r3]
 1858              		.loc 1 938 29
 1859 018a 9B68     		ldr	r3, [r3, #8]
 1860              		.loc 1 938 13
 1861 018c 03F00703 		and	r3, r3, #7
 1862 0190 FB60     		str	r3, [r7, #12]
 939:./Drivers/STM32F1xx_HAL_Driver/Src/stm32f1xx_hal_tim.c ****     if (!IS_TIM_SLAVEMODE_TRIGGER_ENABLED(tmpsmcr))
 1863              		.loc 1 939 8
 1864 0192 FB68     		ldr	r3, [r7, #12]
 1865 0194 062B     		cmp	r3, #6
 1866 0196 10D0     		beq	.L120
 940:./Drivers/STM32F1xx_HAL_Driver/Src/stm32f1xx_hal_tim.c ****     {
 941:./Drivers/STM32F1xx_HAL_Driver/Src/stm32f1xx_hal_tim.c ****       __HAL_TIM_ENABLE(htim);
 1867              		.loc 1 941 7
 1868 0198 7B68     		ldr	r3, [r7, #4]
 1869 019a 1B68     		ldr	r3, [r3]
 1870 019c 1A68     		ldr	r2, [r3]
 1871 019e 7B68     		ldr	r3, [r7, #4]
 1872 01a0 1B68     		ldr	r3, [r3]
 1873 01a2 42F00102 		orr	r2, r2, #1
 1874 01a6 1A60     		str	r2, [r3]
 939:./Drivers/STM32F1xx_HAL_Driver/Src/stm32f1xx_hal_tim.c ****     if (!IS_TIM_SLAVEMODE_TRIGGER_ENABLED(tmpsmcr))
 1875              		.loc 1 939 8
 1876 01a8 07E0     		b	.L120
 1877              	.L118:
 942:./Drivers/STM32F1xx_HAL_Driver/Src/stm32f1xx_hal_tim.c ****     }
 943:./Drivers/STM32F1xx_HAL_Driver/Src/stm32f1xx_hal_tim.c ****   }
ARM GAS  C:\Users\phucd\AppData\Local\Temp\ccc4tAyX.s 			page 50


 944:./Drivers/STM32F1xx_HAL_Driver/Src/stm32f1xx_hal_tim.c ****   else
 945:./Drivers/STM32F1xx_HAL_Driver/Src/stm32f1xx_hal_tim.c ****   {
 946:./Drivers/STM32F1xx_HAL_Driver/Src/stm32f1xx_hal_tim.c ****     __HAL_TIM_ENABLE(htim);
 1878              		.loc 1 946 5
 1879 01aa 7B68     		ldr	r3, [r7, #4]
 1880 01ac 1B68     		ldr	r3, [r3]
 1881 01ae 1A68     		ldr	r2, [r3]
 1882 01b0 7B68     		ldr	r3, [r7, #4]
 1883 01b2 1B68     		ldr	r3, [r3]
 1884 01b4 42F00102 		orr	r2, r2, #1
 1885 01b8 1A60     		str	r2, [r3]
 1886              	.L120:
 947:./Drivers/STM32F1xx_HAL_Driver/Src/stm32f1xx_hal_tim.c ****   }
 948:./Drivers/STM32F1xx_HAL_Driver/Src/stm32f1xx_hal_tim.c **** 
 949:./Drivers/STM32F1xx_HAL_Driver/Src/stm32f1xx_hal_tim.c ****   /* Return function status */
 950:./Drivers/STM32F1xx_HAL_Driver/Src/stm32f1xx_hal_tim.c ****   return HAL_OK;
 1887              		.loc 1 950 10
 1888 01ba 0023     		movs	r3, #0
 1889              	.L102:
 951:./Drivers/STM32F1xx_HAL_Driver/Src/stm32f1xx_hal_tim.c **** }
 1890              		.loc 1 951 1
 1891 01bc 1846     		mov	r0, r3
 1892 01be 1037     		adds	r7, r7, #16
 1893              		.cfi_def_cfa_offset 8
 1894 01c0 BD46     		mov	sp, r7
 1895              		.cfi_def_cfa_register 13
 1896              		@ sp needed
 1897 01c2 80BD     		pop	{r7, pc}
 1898              	.L123:
 1899              		.align	2
 1900              	.L122:
 1901 01c4 002C0140 		.word	1073818624
 1902 01c8 00040040 		.word	1073742848
 1903 01cc 00080040 		.word	1073743872
 1904              		.cfi_endproc
 1905              	.LFE81:
 1907              		.section	.text.HAL_TIM_OC_Stop_IT,"ax",%progbits
 1908              		.align	1
 1909              		.global	HAL_TIM_OC_Stop_IT
 1910              		.syntax unified
 1911              		.thumb
 1912              		.thumb_func
 1913              		.fpu softvfp
 1915              	HAL_TIM_OC_Stop_IT:
 1916              	.LFB82:
 952:./Drivers/STM32F1xx_HAL_Driver/Src/stm32f1xx_hal_tim.c **** 
 953:./Drivers/STM32F1xx_HAL_Driver/Src/stm32f1xx_hal_tim.c **** /**
 954:./Drivers/STM32F1xx_HAL_Driver/Src/stm32f1xx_hal_tim.c ****   * @brief  Stops the TIM Output Compare signal generation in interrupt mode.
 955:./Drivers/STM32F1xx_HAL_Driver/Src/stm32f1xx_hal_tim.c ****   * @param  htim TIM Output Compare handle
 956:./Drivers/STM32F1xx_HAL_Driver/Src/stm32f1xx_hal_tim.c ****   * @param  Channel TIM Channel to be disabled
 957:./Drivers/STM32F1xx_HAL_Driver/Src/stm32f1xx_hal_tim.c ****   *          This parameter can be one of the following values:
 958:./Drivers/STM32F1xx_HAL_Driver/Src/stm32f1xx_hal_tim.c ****   *            @arg TIM_CHANNEL_1: TIM Channel 1 selected
 959:./Drivers/STM32F1xx_HAL_Driver/Src/stm32f1xx_hal_tim.c ****   *            @arg TIM_CHANNEL_2: TIM Channel 2 selected
 960:./Drivers/STM32F1xx_HAL_Driver/Src/stm32f1xx_hal_tim.c ****   *            @arg TIM_CHANNEL_3: TIM Channel 3 selected
 961:./Drivers/STM32F1xx_HAL_Driver/Src/stm32f1xx_hal_tim.c ****   *            @arg TIM_CHANNEL_4: TIM Channel 4 selected
 962:./Drivers/STM32F1xx_HAL_Driver/Src/stm32f1xx_hal_tim.c ****   * @retval HAL status
 963:./Drivers/STM32F1xx_HAL_Driver/Src/stm32f1xx_hal_tim.c ****   */
ARM GAS  C:\Users\phucd\AppData\Local\Temp\ccc4tAyX.s 			page 51


 964:./Drivers/STM32F1xx_HAL_Driver/Src/stm32f1xx_hal_tim.c **** HAL_StatusTypeDef HAL_TIM_OC_Stop_IT(TIM_HandleTypeDef *htim, uint32_t Channel)
 965:./Drivers/STM32F1xx_HAL_Driver/Src/stm32f1xx_hal_tim.c **** {
 1917              		.loc 1 965 1
 1918              		.cfi_startproc
 1919              		@ args = 0, pretend = 0, frame = 8
 1920              		@ frame_needed = 1, uses_anonymous_args = 0
 1921 0000 80B5     		push	{r7, lr}
 1922              		.cfi_def_cfa_offset 8
 1923              		.cfi_offset 7, -8
 1924              		.cfi_offset 14, -4
 1925 0002 82B0     		sub	sp, sp, #8
 1926              		.cfi_def_cfa_offset 16
 1927 0004 00AF     		add	r7, sp, #0
 1928              		.cfi_def_cfa_register 7
 1929 0006 7860     		str	r0, [r7, #4]
 1930 0008 3960     		str	r1, [r7]
 1931 000a 3B68     		ldr	r3, [r7]
 1932 000c 0C2B     		cmp	r3, #12
 1933 000e 41D8     		bhi	.L141
 1934 0010 01A2     		adr	r2, .L127
 1935 0012 52F823F0 		ldr	pc, [r2, r3, lsl #2]
 1936 0016 00BF     		.p2align 2
 1937              	.L127:
 1938 0018 4D000000 		.word	.L130+1
 1939 001c 95000000 		.word	.L141+1
 1940 0020 95000000 		.word	.L141+1
 1941 0024 95000000 		.word	.L141+1
 1942 0028 5F000000 		.word	.L129+1
 1943 002c 95000000 		.word	.L141+1
 1944 0030 95000000 		.word	.L141+1
 1945 0034 95000000 		.word	.L141+1
 1946 0038 71000000 		.word	.L128+1
 1947 003c 95000000 		.word	.L141+1
 1948 0040 95000000 		.word	.L141+1
 1949 0044 95000000 		.word	.L141+1
 1950 0048 83000000 		.word	.L126+1
 1951              		.p2align 1
 1952              	.L130:
 966:./Drivers/STM32F1xx_HAL_Driver/Src/stm32f1xx_hal_tim.c ****   /* Check the parameters */
 967:./Drivers/STM32F1xx_HAL_Driver/Src/stm32f1xx_hal_tim.c ****   assert_param(IS_TIM_CCX_INSTANCE(htim->Instance, Channel));
 968:./Drivers/STM32F1xx_HAL_Driver/Src/stm32f1xx_hal_tim.c **** 
 969:./Drivers/STM32F1xx_HAL_Driver/Src/stm32f1xx_hal_tim.c ****   switch (Channel)
 970:./Drivers/STM32F1xx_HAL_Driver/Src/stm32f1xx_hal_tim.c ****   {
 971:./Drivers/STM32F1xx_HAL_Driver/Src/stm32f1xx_hal_tim.c ****     case TIM_CHANNEL_1:
 972:./Drivers/STM32F1xx_HAL_Driver/Src/stm32f1xx_hal_tim.c ****     {
 973:./Drivers/STM32F1xx_HAL_Driver/Src/stm32f1xx_hal_tim.c ****       /* Disable the TIM Capture/Compare 1 interrupt */
 974:./Drivers/STM32F1xx_HAL_Driver/Src/stm32f1xx_hal_tim.c ****       __HAL_TIM_DISABLE_IT(htim, TIM_IT_CC1);
 1953              		.loc 1 974 7
 1954 004c 7B68     		ldr	r3, [r7, #4]
 1955 004e 1B68     		ldr	r3, [r3]
 1956 0050 DA68     		ldr	r2, [r3, #12]
 1957 0052 7B68     		ldr	r3, [r7, #4]
 1958 0054 1B68     		ldr	r3, [r3]
 1959 0056 22F00202 		bic	r2, r2, #2
 1960 005a DA60     		str	r2, [r3, #12]
 975:./Drivers/STM32F1xx_HAL_Driver/Src/stm32f1xx_hal_tim.c ****       break;
 1961              		.loc 1 975 7
ARM GAS  C:\Users\phucd\AppData\Local\Temp\ccc4tAyX.s 			page 52


 1962 005c 1BE0     		b	.L131
 1963              	.L129:
 976:./Drivers/STM32F1xx_HAL_Driver/Src/stm32f1xx_hal_tim.c ****     }
 977:./Drivers/STM32F1xx_HAL_Driver/Src/stm32f1xx_hal_tim.c **** 
 978:./Drivers/STM32F1xx_HAL_Driver/Src/stm32f1xx_hal_tim.c ****     case TIM_CHANNEL_2:
 979:./Drivers/STM32F1xx_HAL_Driver/Src/stm32f1xx_hal_tim.c ****     {
 980:./Drivers/STM32F1xx_HAL_Driver/Src/stm32f1xx_hal_tim.c ****       /* Disable the TIM Capture/Compare 2 interrupt */
 981:./Drivers/STM32F1xx_HAL_Driver/Src/stm32f1xx_hal_tim.c ****       __HAL_TIM_DISABLE_IT(htim, TIM_IT_CC2);
 1964              		.loc 1 981 7
 1965 005e 7B68     		ldr	r3, [r7, #4]
 1966 0060 1B68     		ldr	r3, [r3]
 1967 0062 DA68     		ldr	r2, [r3, #12]
 1968 0064 7B68     		ldr	r3, [r7, #4]
 1969 0066 1B68     		ldr	r3, [r3]
 1970 0068 22F00402 		bic	r2, r2, #4
 1971 006c DA60     		str	r2, [r3, #12]
 982:./Drivers/STM32F1xx_HAL_Driver/Src/stm32f1xx_hal_tim.c ****       break;
 1972              		.loc 1 982 7
 1973 006e 12E0     		b	.L131
 1974              	.L128:
 983:./Drivers/STM32F1xx_HAL_Driver/Src/stm32f1xx_hal_tim.c ****     }
 984:./Drivers/STM32F1xx_HAL_Driver/Src/stm32f1xx_hal_tim.c **** 
 985:./Drivers/STM32F1xx_HAL_Driver/Src/stm32f1xx_hal_tim.c ****     case TIM_CHANNEL_3:
 986:./Drivers/STM32F1xx_HAL_Driver/Src/stm32f1xx_hal_tim.c ****     {
 987:./Drivers/STM32F1xx_HAL_Driver/Src/stm32f1xx_hal_tim.c ****       /* Disable the TIM Capture/Compare 3 interrupt */
 988:./Drivers/STM32F1xx_HAL_Driver/Src/stm32f1xx_hal_tim.c ****       __HAL_TIM_DISABLE_IT(htim, TIM_IT_CC3);
 1975              		.loc 1 988 7
 1976 0070 7B68     		ldr	r3, [r7, #4]
 1977 0072 1B68     		ldr	r3, [r3]
 1978 0074 DA68     		ldr	r2, [r3, #12]
 1979 0076 7B68     		ldr	r3, [r7, #4]
 1980 0078 1B68     		ldr	r3, [r3]
 1981 007a 22F00802 		bic	r2, r2, #8
 1982 007e DA60     		str	r2, [r3, #12]
 989:./Drivers/STM32F1xx_HAL_Driver/Src/stm32f1xx_hal_tim.c ****       break;
 1983              		.loc 1 989 7
 1984 0080 09E0     		b	.L131
 1985              	.L126:
 990:./Drivers/STM32F1xx_HAL_Driver/Src/stm32f1xx_hal_tim.c ****     }
 991:./Drivers/STM32F1xx_HAL_Driver/Src/stm32f1xx_hal_tim.c **** 
 992:./Drivers/STM32F1xx_HAL_Driver/Src/stm32f1xx_hal_tim.c ****     case TIM_CHANNEL_4:
 993:./Drivers/STM32F1xx_HAL_Driver/Src/stm32f1xx_hal_tim.c ****     {
 994:./Drivers/STM32F1xx_HAL_Driver/Src/stm32f1xx_hal_tim.c ****       /* Disable the TIM Capture/Compare 4 interrupt */
 995:./Drivers/STM32F1xx_HAL_Driver/Src/stm32f1xx_hal_tim.c ****       __HAL_TIM_DISABLE_IT(htim, TIM_IT_CC4);
 1986              		.loc 1 995 7
 1987 0082 7B68     		ldr	r3, [r7, #4]
 1988 0084 1B68     		ldr	r3, [r3]
 1989 0086 DA68     		ldr	r2, [r3, #12]
 1990 0088 7B68     		ldr	r3, [r7, #4]
 1991 008a 1B68     		ldr	r3, [r3]
 1992 008c 22F01002 		bic	r2, r2, #16
 1993 0090 DA60     		str	r2, [r3, #12]
 996:./Drivers/STM32F1xx_HAL_Driver/Src/stm32f1xx_hal_tim.c ****       break;
 1994              		.loc 1 996 7
 1995 0092 00E0     		b	.L131
 1996              	.L141:
 997:./Drivers/STM32F1xx_HAL_Driver/Src/stm32f1xx_hal_tim.c ****     }
ARM GAS  C:\Users\phucd\AppData\Local\Temp\ccc4tAyX.s 			page 53


 998:./Drivers/STM32F1xx_HAL_Driver/Src/stm32f1xx_hal_tim.c **** 
 999:./Drivers/STM32F1xx_HAL_Driver/Src/stm32f1xx_hal_tim.c ****     default:
1000:./Drivers/STM32F1xx_HAL_Driver/Src/stm32f1xx_hal_tim.c ****       break;
 1997              		.loc 1 1000 7
 1998 0094 00BF     		nop
 1999              	.L131:
1001:./Drivers/STM32F1xx_HAL_Driver/Src/stm32f1xx_hal_tim.c ****   }
1002:./Drivers/STM32F1xx_HAL_Driver/Src/stm32f1xx_hal_tim.c **** 
1003:./Drivers/STM32F1xx_HAL_Driver/Src/stm32f1xx_hal_tim.c ****   /* Disable the Output compare channel */
1004:./Drivers/STM32F1xx_HAL_Driver/Src/stm32f1xx_hal_tim.c ****   TIM_CCxChannelCmd(htim->Instance, Channel, TIM_CCx_DISABLE);
 2000              		.loc 1 1004 3
 2001 0096 7B68     		ldr	r3, [r7, #4]
 2002 0098 1B68     		ldr	r3, [r3]
 2003 009a 0022     		movs	r2, #0
 2004 009c 3968     		ldr	r1, [r7]
 2005 009e 1846     		mov	r0, r3
 2006 00a0 FFF7FEFF 		bl	TIM_CCxChannelCmd
1005:./Drivers/STM32F1xx_HAL_Driver/Src/stm32f1xx_hal_tim.c **** 
1006:./Drivers/STM32F1xx_HAL_Driver/Src/stm32f1xx_hal_tim.c ****   if (IS_TIM_BREAK_INSTANCE(htim->Instance) != RESET)
 2007              		.loc 1 1006 7
 2008 00a4 7B68     		ldr	r3, [r7, #4]
 2009 00a6 1B68     		ldr	r3, [r3]
 2010              		.loc 1 1006 6
 2011 00a8 294A     		ldr	r2, .L142
 2012 00aa 9342     		cmp	r3, r2
 2013 00ac 17D1     		bne	.L132
1007:./Drivers/STM32F1xx_HAL_Driver/Src/stm32f1xx_hal_tim.c ****   {
1008:./Drivers/STM32F1xx_HAL_Driver/Src/stm32f1xx_hal_tim.c ****     /* Disable the Main Output */
1009:./Drivers/STM32F1xx_HAL_Driver/Src/stm32f1xx_hal_tim.c ****     __HAL_TIM_MOE_DISABLE(htim);
 2014              		.loc 1 1009 5
 2015 00ae 7B68     		ldr	r3, [r7, #4]
 2016 00b0 1B68     		ldr	r3, [r3]
 2017 00b2 1A6A     		ldr	r2, [r3, #32]
 2018 00b4 41F21113 		movw	r3, #4369
 2019 00b8 1340     		ands	r3, r3, r2
 2020 00ba 002B     		cmp	r3, #0
 2021 00bc 0FD1     		bne	.L132
 2022              		.loc 1 1009 5 is_stmt 0 discriminator 1
 2023 00be 7B68     		ldr	r3, [r7, #4]
 2024 00c0 1B68     		ldr	r3, [r3]
 2025 00c2 1A6A     		ldr	r2, [r3, #32]
 2026 00c4 40F24443 		movw	r3, #1092
 2027 00c8 1340     		ands	r3, r3, r2
 2028 00ca 002B     		cmp	r3, #0
 2029 00cc 07D1     		bne	.L132
 2030              		.loc 1 1009 5 discriminator 2
 2031 00ce 7B68     		ldr	r3, [r7, #4]
 2032 00d0 1B68     		ldr	r3, [r3]
 2033 00d2 5A6C     		ldr	r2, [r3, #68]
 2034 00d4 7B68     		ldr	r3, [r7, #4]
 2035 00d6 1B68     		ldr	r3, [r3]
 2036 00d8 22F40042 		bic	r2, r2, #32768
 2037 00dc 5A64     		str	r2, [r3, #68]
 2038              	.L132:
1010:./Drivers/STM32F1xx_HAL_Driver/Src/stm32f1xx_hal_tim.c ****   }
1011:./Drivers/STM32F1xx_HAL_Driver/Src/stm32f1xx_hal_tim.c **** 
1012:./Drivers/STM32F1xx_HAL_Driver/Src/stm32f1xx_hal_tim.c ****   /* Disable the Peripheral */
ARM GAS  C:\Users\phucd\AppData\Local\Temp\ccc4tAyX.s 			page 54


1013:./Drivers/STM32F1xx_HAL_Driver/Src/stm32f1xx_hal_tim.c ****   __HAL_TIM_DISABLE(htim);
 2039              		.loc 1 1013 3 is_stmt 1
 2040 00de 7B68     		ldr	r3, [r7, #4]
 2041 00e0 1B68     		ldr	r3, [r3]
 2042 00e2 1A6A     		ldr	r2, [r3, #32]
 2043 00e4 41F21113 		movw	r3, #4369
 2044 00e8 1340     		ands	r3, r3, r2
 2045 00ea 002B     		cmp	r3, #0
 2046 00ec 0FD1     		bne	.L133
 2047              		.loc 1 1013 3 is_stmt 0 discriminator 1
 2048 00ee 7B68     		ldr	r3, [r7, #4]
 2049 00f0 1B68     		ldr	r3, [r3]
 2050 00f2 1A6A     		ldr	r2, [r3, #32]
 2051 00f4 40F24443 		movw	r3, #1092
 2052 00f8 1340     		ands	r3, r3, r2
 2053 00fa 002B     		cmp	r3, #0
 2054 00fc 07D1     		bne	.L133
 2055              		.loc 1 1013 3 discriminator 2
 2056 00fe 7B68     		ldr	r3, [r7, #4]
 2057 0100 1B68     		ldr	r3, [r3]
 2058 0102 1A68     		ldr	r2, [r3]
 2059 0104 7B68     		ldr	r3, [r7, #4]
 2060 0106 1B68     		ldr	r3, [r3]
 2061 0108 22F00102 		bic	r2, r2, #1
 2062 010c 1A60     		str	r2, [r3]
 2063              	.L133:
1014:./Drivers/STM32F1xx_HAL_Driver/Src/stm32f1xx_hal_tim.c **** 
1015:./Drivers/STM32F1xx_HAL_Driver/Src/stm32f1xx_hal_tim.c ****   /* Set the TIM channel state */
1016:./Drivers/STM32F1xx_HAL_Driver/Src/stm32f1xx_hal_tim.c ****   TIM_CHANNEL_STATE_SET(htim, Channel, HAL_TIM_CHANNEL_STATE_READY);
 2064              		.loc 1 1016 3 is_stmt 1
 2065 010e 3B68     		ldr	r3, [r7]
 2066 0110 002B     		cmp	r3, #0
 2067 0112 04D1     		bne	.L134
 2068              		.loc 1 1016 3 is_stmt 0 discriminator 1
 2069 0114 7B68     		ldr	r3, [r7, #4]
 2070 0116 0122     		movs	r2, #1
 2071 0118 83F83E20 		strb	r2, [r3, #62]
 2072 011c 13E0     		b	.L135
 2073              	.L134:
 2074              		.loc 1 1016 3 discriminator 2
 2075 011e 3B68     		ldr	r3, [r7]
 2076 0120 042B     		cmp	r3, #4
 2077 0122 04D1     		bne	.L136
 2078              		.loc 1 1016 3 discriminator 3
 2079 0124 7B68     		ldr	r3, [r7, #4]
 2080 0126 0122     		movs	r2, #1
 2081 0128 83F83F20 		strb	r2, [r3, #63]
 2082 012c 0BE0     		b	.L135
 2083              	.L136:
 2084              		.loc 1 1016 3 discriminator 4
 2085 012e 3B68     		ldr	r3, [r7]
 2086 0130 082B     		cmp	r3, #8
 2087 0132 04D1     		bne	.L138
 2088              		.loc 1 1016 3 discriminator 6
 2089 0134 7B68     		ldr	r3, [r7, #4]
 2090 0136 0122     		movs	r2, #1
 2091 0138 83F84020 		strb	r2, [r3, #64]
ARM GAS  C:\Users\phucd\AppData\Local\Temp\ccc4tAyX.s 			page 55


 2092 013c 03E0     		b	.L135
 2093              	.L138:
 2094              		.loc 1 1016 3 discriminator 7
 2095 013e 7B68     		ldr	r3, [r7, #4]
 2096 0140 0122     		movs	r2, #1
 2097 0142 83F84120 		strb	r2, [r3, #65]
 2098              	.L135:
1017:./Drivers/STM32F1xx_HAL_Driver/Src/stm32f1xx_hal_tim.c **** 
1018:./Drivers/STM32F1xx_HAL_Driver/Src/stm32f1xx_hal_tim.c ****   /* Return function status */
1019:./Drivers/STM32F1xx_HAL_Driver/Src/stm32f1xx_hal_tim.c ****   return HAL_OK;
 2099              		.loc 1 1019 10 is_stmt 1
 2100 0146 0023     		movs	r3, #0
1020:./Drivers/STM32F1xx_HAL_Driver/Src/stm32f1xx_hal_tim.c **** }
 2101              		.loc 1 1020 1
 2102 0148 1846     		mov	r0, r3
 2103 014a 0837     		adds	r7, r7, #8
 2104              		.cfi_def_cfa_offset 8
 2105 014c BD46     		mov	sp, r7
 2106              		.cfi_def_cfa_register 13
 2107              		@ sp needed
 2108 014e 80BD     		pop	{r7, pc}
 2109              	.L143:
 2110              		.align	2
 2111              	.L142:
 2112 0150 002C0140 		.word	1073818624
 2113              		.cfi_endproc
 2114              	.LFE82:
 2116              		.section	.text.HAL_TIM_OC_Start_DMA,"ax",%progbits
 2117              		.align	1
 2118              		.global	HAL_TIM_OC_Start_DMA
 2119              		.syntax unified
 2120              		.thumb
 2121              		.thumb_func
 2122              		.fpu softvfp
 2124              	HAL_TIM_OC_Start_DMA:
 2125              	.LFB83:
1021:./Drivers/STM32F1xx_HAL_Driver/Src/stm32f1xx_hal_tim.c **** 
1022:./Drivers/STM32F1xx_HAL_Driver/Src/stm32f1xx_hal_tim.c **** /**
1023:./Drivers/STM32F1xx_HAL_Driver/Src/stm32f1xx_hal_tim.c ****   * @brief  Starts the TIM Output Compare signal generation in DMA mode.
1024:./Drivers/STM32F1xx_HAL_Driver/Src/stm32f1xx_hal_tim.c ****   * @param  htim TIM Output Compare handle
1025:./Drivers/STM32F1xx_HAL_Driver/Src/stm32f1xx_hal_tim.c ****   * @param  Channel TIM Channel to be enabled
1026:./Drivers/STM32F1xx_HAL_Driver/Src/stm32f1xx_hal_tim.c ****   *          This parameter can be one of the following values:
1027:./Drivers/STM32F1xx_HAL_Driver/Src/stm32f1xx_hal_tim.c ****   *            @arg TIM_CHANNEL_1: TIM Channel 1 selected
1028:./Drivers/STM32F1xx_HAL_Driver/Src/stm32f1xx_hal_tim.c ****   *            @arg TIM_CHANNEL_2: TIM Channel 2 selected
1029:./Drivers/STM32F1xx_HAL_Driver/Src/stm32f1xx_hal_tim.c ****   *            @arg TIM_CHANNEL_3: TIM Channel 3 selected
1030:./Drivers/STM32F1xx_HAL_Driver/Src/stm32f1xx_hal_tim.c ****   *            @arg TIM_CHANNEL_4: TIM Channel 4 selected
1031:./Drivers/STM32F1xx_HAL_Driver/Src/stm32f1xx_hal_tim.c ****   * @param  pData The source Buffer address.
1032:./Drivers/STM32F1xx_HAL_Driver/Src/stm32f1xx_hal_tim.c ****   * @param  Length The length of data to be transferred from memory to TIM peripheral
1033:./Drivers/STM32F1xx_HAL_Driver/Src/stm32f1xx_hal_tim.c ****   * @retval HAL status
1034:./Drivers/STM32F1xx_HAL_Driver/Src/stm32f1xx_hal_tim.c ****   */
1035:./Drivers/STM32F1xx_HAL_Driver/Src/stm32f1xx_hal_tim.c **** HAL_StatusTypeDef HAL_TIM_OC_Start_DMA(TIM_HandleTypeDef *htim, uint32_t Channel, uint32_t *pData, 
1036:./Drivers/STM32F1xx_HAL_Driver/Src/stm32f1xx_hal_tim.c **** {
 2126              		.loc 1 1036 1
 2127              		.cfi_startproc
 2128              		@ args = 0, pretend = 0, frame = 24
 2129              		@ frame_needed = 1, uses_anonymous_args = 0
 2130 0000 80B5     		push	{r7, lr}
ARM GAS  C:\Users\phucd\AppData\Local\Temp\ccc4tAyX.s 			page 56


 2131              		.cfi_def_cfa_offset 8
 2132              		.cfi_offset 7, -8
 2133              		.cfi_offset 14, -4
 2134 0002 86B0     		sub	sp, sp, #24
 2135              		.cfi_def_cfa_offset 32
 2136 0004 00AF     		add	r7, sp, #0
 2137              		.cfi_def_cfa_register 7
 2138 0006 F860     		str	r0, [r7, #12]
 2139 0008 B960     		str	r1, [r7, #8]
 2140 000a 7A60     		str	r2, [r7, #4]
 2141 000c 7B80     		strh	r3, [r7, #2]	@ movhi
1037:./Drivers/STM32F1xx_HAL_Driver/Src/stm32f1xx_hal_tim.c ****   uint32_t tmpsmcr;
1038:./Drivers/STM32F1xx_HAL_Driver/Src/stm32f1xx_hal_tim.c **** 
1039:./Drivers/STM32F1xx_HAL_Driver/Src/stm32f1xx_hal_tim.c ****   /* Check the parameters */
1040:./Drivers/STM32F1xx_HAL_Driver/Src/stm32f1xx_hal_tim.c ****   assert_param(IS_TIM_CCX_INSTANCE(htim->Instance, Channel));
1041:./Drivers/STM32F1xx_HAL_Driver/Src/stm32f1xx_hal_tim.c **** 
1042:./Drivers/STM32F1xx_HAL_Driver/Src/stm32f1xx_hal_tim.c ****   /* Set the TIM channel state */
1043:./Drivers/STM32F1xx_HAL_Driver/Src/stm32f1xx_hal_tim.c ****   if (TIM_CHANNEL_STATE_GET(htim, Channel) == HAL_TIM_CHANNEL_STATE_BUSY)
 2142              		.loc 1 1043 44
 2143 000e BB68     		ldr	r3, [r7, #8]
 2144 0010 002B     		cmp	r3, #0
 2145 0012 09D1     		bne	.L145
 2146              		.loc 1 1043 7 discriminator 1
 2147 0014 FB68     		ldr	r3, [r7, #12]
 2148 0016 93F83E30 		ldrb	r3, [r3, #62]
 2149 001a DBB2     		uxtb	r3, r3
 2150              		.loc 1 1043 44 discriminator 1
 2151 001c 022B     		cmp	r3, #2
 2152 001e 0CBF     		ite	eq
 2153 0020 0123     		moveq	r3, #1
 2154 0022 0023     		movne	r3, #0
 2155 0024 DBB2     		uxtb	r3, r3
 2156 0026 22E0     		b	.L146
 2157              	.L145:
 2158              		.loc 1 1043 44 is_stmt 0 discriminator 2
 2159 0028 BB68     		ldr	r3, [r7, #8]
 2160 002a 042B     		cmp	r3, #4
 2161 002c 09D1     		bne	.L147
 2162              		.loc 1 1043 7 is_stmt 1 discriminator 4
 2163 002e FB68     		ldr	r3, [r7, #12]
 2164 0030 93F83F30 		ldrb	r3, [r3, #63]
 2165 0034 DBB2     		uxtb	r3, r3
 2166              		.loc 1 1043 44 discriminator 4
 2167 0036 022B     		cmp	r3, #2
 2168 0038 0CBF     		ite	eq
 2169 003a 0123     		moveq	r3, #1
 2170 003c 0023     		movne	r3, #0
 2171 003e DBB2     		uxtb	r3, r3
 2172 0040 15E0     		b	.L146
 2173              	.L147:
 2174              		.loc 1 1043 44 is_stmt 0 discriminator 5
 2175 0042 BB68     		ldr	r3, [r7, #8]
 2176 0044 082B     		cmp	r3, #8
 2177 0046 09D1     		bne	.L149
 2178              		.loc 1 1043 7 is_stmt 1 discriminator 7
 2179 0048 FB68     		ldr	r3, [r7, #12]
 2180 004a 93F84030 		ldrb	r3, [r3, #64]
ARM GAS  C:\Users\phucd\AppData\Local\Temp\ccc4tAyX.s 			page 57


 2181 004e DBB2     		uxtb	r3, r3
 2182              		.loc 1 1043 44 discriminator 7
 2183 0050 022B     		cmp	r3, #2
 2184 0052 0CBF     		ite	eq
 2185 0054 0123     		moveq	r3, #1
 2186 0056 0023     		movne	r3, #0
 2187 0058 DBB2     		uxtb	r3, r3
 2188 005a 08E0     		b	.L146
 2189              	.L149:
 2190              		.loc 1 1043 7 discriminator 8
 2191 005c FB68     		ldr	r3, [r7, #12]
 2192 005e 93F84130 		ldrb	r3, [r3, #65]
 2193 0062 DBB2     		uxtb	r3, r3
 2194              		.loc 1 1043 44 discriminator 8
 2195 0064 022B     		cmp	r3, #2
 2196 0066 0CBF     		ite	eq
 2197 0068 0123     		moveq	r3, #1
 2198 006a 0023     		movne	r3, #0
 2199 006c DBB2     		uxtb	r3, r3
 2200              	.L146:
 2201              		.loc 1 1043 6 discriminator 12
 2202 006e 002B     		cmp	r3, #0
 2203 0070 01D0     		beq	.L151
1044:./Drivers/STM32F1xx_HAL_Driver/Src/stm32f1xx_hal_tim.c ****   {
1045:./Drivers/STM32F1xx_HAL_Driver/Src/stm32f1xx_hal_tim.c ****     return HAL_BUSY;
 2204              		.loc 1 1045 12
 2205 0072 0223     		movs	r3, #2
 2206 0074 4EE1     		b	.L152
 2207              	.L151:
1046:./Drivers/STM32F1xx_HAL_Driver/Src/stm32f1xx_hal_tim.c ****   }
1047:./Drivers/STM32F1xx_HAL_Driver/Src/stm32f1xx_hal_tim.c ****   else if (TIM_CHANNEL_STATE_GET(htim, Channel) == HAL_TIM_CHANNEL_STATE_READY)
 2208              		.loc 1 1047 49
 2209 0076 BB68     		ldr	r3, [r7, #8]
 2210 0078 002B     		cmp	r3, #0
 2211 007a 09D1     		bne	.L153
 2212              		.loc 1 1047 12 discriminator 1
 2213 007c FB68     		ldr	r3, [r7, #12]
 2214 007e 93F83E30 		ldrb	r3, [r3, #62]
 2215 0082 DBB2     		uxtb	r3, r3
 2216              		.loc 1 1047 49 discriminator 1
 2217 0084 012B     		cmp	r3, #1
 2218 0086 0CBF     		ite	eq
 2219 0088 0123     		moveq	r3, #1
 2220 008a 0023     		movne	r3, #0
 2221 008c DBB2     		uxtb	r3, r3
 2222 008e 22E0     		b	.L154
 2223              	.L153:
 2224              		.loc 1 1047 49 is_stmt 0 discriminator 2
 2225 0090 BB68     		ldr	r3, [r7, #8]
 2226 0092 042B     		cmp	r3, #4
 2227 0094 09D1     		bne	.L155
 2228              		.loc 1 1047 12 is_stmt 1 discriminator 4
 2229 0096 FB68     		ldr	r3, [r7, #12]
 2230 0098 93F83F30 		ldrb	r3, [r3, #63]
 2231 009c DBB2     		uxtb	r3, r3
 2232              		.loc 1 1047 49 discriminator 4
 2233 009e 012B     		cmp	r3, #1
ARM GAS  C:\Users\phucd\AppData\Local\Temp\ccc4tAyX.s 			page 58


 2234 00a0 0CBF     		ite	eq
 2235 00a2 0123     		moveq	r3, #1
 2236 00a4 0023     		movne	r3, #0
 2237 00a6 DBB2     		uxtb	r3, r3
 2238 00a8 15E0     		b	.L154
 2239              	.L155:
 2240              		.loc 1 1047 49 is_stmt 0 discriminator 5
 2241 00aa BB68     		ldr	r3, [r7, #8]
 2242 00ac 082B     		cmp	r3, #8
 2243 00ae 09D1     		bne	.L157
 2244              		.loc 1 1047 12 is_stmt 1 discriminator 7
 2245 00b0 FB68     		ldr	r3, [r7, #12]
 2246 00b2 93F84030 		ldrb	r3, [r3, #64]
 2247 00b6 DBB2     		uxtb	r3, r3
 2248              		.loc 1 1047 49 discriminator 7
 2249 00b8 012B     		cmp	r3, #1
 2250 00ba 0CBF     		ite	eq
 2251 00bc 0123     		moveq	r3, #1
 2252 00be 0023     		movne	r3, #0
 2253 00c0 DBB2     		uxtb	r3, r3
 2254 00c2 08E0     		b	.L154
 2255              	.L157:
 2256              		.loc 1 1047 12 discriminator 8
 2257 00c4 FB68     		ldr	r3, [r7, #12]
 2258 00c6 93F84130 		ldrb	r3, [r3, #65]
 2259 00ca DBB2     		uxtb	r3, r3
 2260              		.loc 1 1047 49 discriminator 8
 2261 00cc 012B     		cmp	r3, #1
 2262 00ce 0CBF     		ite	eq
 2263 00d0 0123     		moveq	r3, #1
 2264 00d2 0023     		movne	r3, #0
 2265 00d4 DBB2     		uxtb	r3, r3
 2266              	.L154:
 2267              		.loc 1 1047 11 discriminator 12
 2268 00d6 002B     		cmp	r3, #0
 2269 00d8 24D0     		beq	.L159
1048:./Drivers/STM32F1xx_HAL_Driver/Src/stm32f1xx_hal_tim.c ****   {
1049:./Drivers/STM32F1xx_HAL_Driver/Src/stm32f1xx_hal_tim.c ****     if ((pData == NULL) && (Length > 0U))
 2270              		.loc 1 1049 8
 2271 00da 7B68     		ldr	r3, [r7, #4]
 2272 00dc 002B     		cmp	r3, #0
 2273 00de 04D1     		bne	.L160
 2274              		.loc 1 1049 25 discriminator 1
 2275 00e0 7B88     		ldrh	r3, [r7, #2]
 2276 00e2 002B     		cmp	r3, #0
 2277 00e4 01D0     		beq	.L160
1050:./Drivers/STM32F1xx_HAL_Driver/Src/stm32f1xx_hal_tim.c ****     {
1051:./Drivers/STM32F1xx_HAL_Driver/Src/stm32f1xx_hal_tim.c ****       return HAL_ERROR;
 2278              		.loc 1 1051 14
 2279 00e6 0123     		movs	r3, #1
 2280 00e8 14E1     		b	.L152
 2281              	.L160:
1052:./Drivers/STM32F1xx_HAL_Driver/Src/stm32f1xx_hal_tim.c ****     }
1053:./Drivers/STM32F1xx_HAL_Driver/Src/stm32f1xx_hal_tim.c ****     else
1054:./Drivers/STM32F1xx_HAL_Driver/Src/stm32f1xx_hal_tim.c ****     {
1055:./Drivers/STM32F1xx_HAL_Driver/Src/stm32f1xx_hal_tim.c ****       TIM_CHANNEL_STATE_SET(htim, Channel, HAL_TIM_CHANNEL_STATE_BUSY);
 2282              		.loc 1 1055 7
ARM GAS  C:\Users\phucd\AppData\Local\Temp\ccc4tAyX.s 			page 59


 2283 00ea BB68     		ldr	r3, [r7, #8]
 2284 00ec 002B     		cmp	r3, #0
 2285 00ee 04D1     		bne	.L161
 2286              		.loc 1 1055 7 is_stmt 0 discriminator 1
 2287 00f0 FB68     		ldr	r3, [r7, #12]
 2288 00f2 0222     		movs	r2, #2
 2289 00f4 83F83E20 		strb	r2, [r3, #62]
 2290 00f8 16E0     		b	.L162
 2291              	.L161:
 2292              		.loc 1 1055 7 discriminator 2
 2293 00fa BB68     		ldr	r3, [r7, #8]
 2294 00fc 042B     		cmp	r3, #4
 2295 00fe 04D1     		bne	.L163
 2296              		.loc 1 1055 7 discriminator 3
 2297 0100 FB68     		ldr	r3, [r7, #12]
 2298 0102 0222     		movs	r2, #2
 2299 0104 83F83F20 		strb	r2, [r3, #63]
 2300 0108 0EE0     		b	.L162
 2301              	.L163:
 2302              		.loc 1 1055 7 discriminator 4
 2303 010a BB68     		ldr	r3, [r7, #8]
 2304 010c 082B     		cmp	r3, #8
 2305 010e 04D1     		bne	.L165
 2306              		.loc 1 1055 7 discriminator 6
 2307 0110 FB68     		ldr	r3, [r7, #12]
 2308 0112 0222     		movs	r2, #2
 2309 0114 83F84020 		strb	r2, [r3, #64]
 2310 0118 06E0     		b	.L162
 2311              	.L165:
 2312              		.loc 1 1055 7 discriminator 7
 2313 011a FB68     		ldr	r3, [r7, #12]
 2314 011c 0222     		movs	r2, #2
 2315 011e 83F84120 		strb	r2, [r3, #65]
 2316 0122 01E0     		b	.L162
 2317              	.L159:
1056:./Drivers/STM32F1xx_HAL_Driver/Src/stm32f1xx_hal_tim.c ****     }
1057:./Drivers/STM32F1xx_HAL_Driver/Src/stm32f1xx_hal_tim.c ****   }
1058:./Drivers/STM32F1xx_HAL_Driver/Src/stm32f1xx_hal_tim.c ****   else
1059:./Drivers/STM32F1xx_HAL_Driver/Src/stm32f1xx_hal_tim.c ****   {
1060:./Drivers/STM32F1xx_HAL_Driver/Src/stm32f1xx_hal_tim.c ****     return HAL_ERROR;
 2318              		.loc 1 1060 12 is_stmt 1
 2319 0124 0123     		movs	r3, #1
 2320 0126 F5E0     		b	.L152
 2321              	.L162:
 2322 0128 BB68     		ldr	r3, [r7, #8]
 2323 012a 0C2B     		cmp	r3, #12
 2324 012c 00F2AE80 		bhi	.L183
 2325 0130 01A2     		adr	r2, .L169
 2326 0132 52F823F0 		ldr	pc, [r2, r3, lsl #2]
 2327 0136 00BF     		.p2align 2
 2328              	.L169:
 2329 0138 6D010000 		.word	.L172+1
 2330 013c 8D020000 		.word	.L183+1
 2331 0140 8D020000 		.word	.L183+1
 2332 0144 8D020000 		.word	.L183+1
 2333 0148 B5010000 		.word	.L171+1
 2334 014c 8D020000 		.word	.L183+1
ARM GAS  C:\Users\phucd\AppData\Local\Temp\ccc4tAyX.s 			page 60


 2335 0150 8D020000 		.word	.L183+1
 2336 0154 8D020000 		.word	.L183+1
 2337 0158 FD010000 		.word	.L170+1
 2338 015c 8D020000 		.word	.L183+1
 2339 0160 8D020000 		.word	.L183+1
 2340 0164 8D020000 		.word	.L183+1
 2341 0168 45020000 		.word	.L168+1
 2342              		.p2align 1
 2343              	.L172:
1061:./Drivers/STM32F1xx_HAL_Driver/Src/stm32f1xx_hal_tim.c ****   }
1062:./Drivers/STM32F1xx_HAL_Driver/Src/stm32f1xx_hal_tim.c **** 
1063:./Drivers/STM32F1xx_HAL_Driver/Src/stm32f1xx_hal_tim.c ****   switch (Channel)
1064:./Drivers/STM32F1xx_HAL_Driver/Src/stm32f1xx_hal_tim.c ****   {
1065:./Drivers/STM32F1xx_HAL_Driver/Src/stm32f1xx_hal_tim.c ****     case TIM_CHANNEL_1:
1066:./Drivers/STM32F1xx_HAL_Driver/Src/stm32f1xx_hal_tim.c ****     {
1067:./Drivers/STM32F1xx_HAL_Driver/Src/stm32f1xx_hal_tim.c ****       /* Set the DMA compare callbacks */
1068:./Drivers/STM32F1xx_HAL_Driver/Src/stm32f1xx_hal_tim.c ****       htim->hdma[TIM_DMA_ID_CC1]->XferCpltCallback = TIM_DMADelayPulseCplt;
 2344              		.loc 1 1068 17
 2345 016c FB68     		ldr	r3, [r7, #12]
 2346 016e 5B6A     		ldr	r3, [r3, #36]
 2347              		.loc 1 1068 52
 2348 0170 6A4A     		ldr	r2, .L184
 2349 0172 9A62     		str	r2, [r3, #40]
1069:./Drivers/STM32F1xx_HAL_Driver/Src/stm32f1xx_hal_tim.c ****       htim->hdma[TIM_DMA_ID_CC1]->XferHalfCpltCallback = TIM_DMADelayPulseHalfCplt;
 2350              		.loc 1 1069 17
 2351 0174 FB68     		ldr	r3, [r7, #12]
 2352 0176 5B6A     		ldr	r3, [r3, #36]
 2353              		.loc 1 1069 56
 2354 0178 694A     		ldr	r2, .L184+4
 2355 017a DA62     		str	r2, [r3, #44]
1070:./Drivers/STM32F1xx_HAL_Driver/Src/stm32f1xx_hal_tim.c **** 
1071:./Drivers/STM32F1xx_HAL_Driver/Src/stm32f1xx_hal_tim.c ****       /* Set the DMA error callback */
1072:./Drivers/STM32F1xx_HAL_Driver/Src/stm32f1xx_hal_tim.c ****       htim->hdma[TIM_DMA_ID_CC1]->XferErrorCallback = TIM_DMAError ;
 2356              		.loc 1 1072 17
 2357 017c FB68     		ldr	r3, [r7, #12]
 2358 017e 5B6A     		ldr	r3, [r3, #36]
 2359              		.loc 1 1072 53
 2360 0180 684A     		ldr	r2, .L184+8
 2361 0182 1A63     		str	r2, [r3, #48]
1073:./Drivers/STM32F1xx_HAL_Driver/Src/stm32f1xx_hal_tim.c **** 
1074:./Drivers/STM32F1xx_HAL_Driver/Src/stm32f1xx_hal_tim.c ****       /* Enable the DMA channel */
1075:./Drivers/STM32F1xx_HAL_Driver/Src/stm32f1xx_hal_tim.c ****       if (HAL_DMA_Start_IT(htim->hdma[TIM_DMA_ID_CC1], (uint32_t)pData, (uint32_t)&htim->Instance->
 2362              		.loc 1 1075 11
 2363 0184 FB68     		ldr	r3, [r7, #12]
 2364 0186 586A     		ldr	r0, [r3, #36]
 2365 0188 7968     		ldr	r1, [r7, #4]
 2366              		.loc 1 1075 88
 2367 018a FB68     		ldr	r3, [r7, #12]
 2368 018c 1B68     		ldr	r3, [r3]
 2369              		.loc 1 1075 83
 2370 018e 3433     		adds	r3, r3, #52
 2371              		.loc 1 1075 11
 2372 0190 1A46     		mov	r2, r3
 2373 0192 7B88     		ldrh	r3, [r7, #2]
 2374 0194 FFF7FEFF 		bl	HAL_DMA_Start_IT
 2375 0198 0346     		mov	r3, r0
 2376              		.loc 1 1075 10
ARM GAS  C:\Users\phucd\AppData\Local\Temp\ccc4tAyX.s 			page 61


 2377 019a 002B     		cmp	r3, #0
 2378 019c 01D0     		beq	.L173
1076:./Drivers/STM32F1xx_HAL_Driver/Src/stm32f1xx_hal_tim.c ****                          Length) != HAL_OK)
1077:./Drivers/STM32F1xx_HAL_Driver/Src/stm32f1xx_hal_tim.c ****       {
1078:./Drivers/STM32F1xx_HAL_Driver/Src/stm32f1xx_hal_tim.c ****         /* Return error status */
1079:./Drivers/STM32F1xx_HAL_Driver/Src/stm32f1xx_hal_tim.c ****         return HAL_ERROR;
 2379              		.loc 1 1079 16
 2380 019e 0123     		movs	r3, #1
 2381 01a0 B8E0     		b	.L152
 2382              	.L173:
1080:./Drivers/STM32F1xx_HAL_Driver/Src/stm32f1xx_hal_tim.c ****       }
1081:./Drivers/STM32F1xx_HAL_Driver/Src/stm32f1xx_hal_tim.c **** 
1082:./Drivers/STM32F1xx_HAL_Driver/Src/stm32f1xx_hal_tim.c ****       /* Enable the TIM Capture/Compare 1 DMA request */
1083:./Drivers/STM32F1xx_HAL_Driver/Src/stm32f1xx_hal_tim.c ****       __HAL_TIM_ENABLE_DMA(htim, TIM_DMA_CC1);
 2383              		.loc 1 1083 7
 2384 01a2 FB68     		ldr	r3, [r7, #12]
 2385 01a4 1B68     		ldr	r3, [r3]
 2386 01a6 DA68     		ldr	r2, [r3, #12]
 2387 01a8 FB68     		ldr	r3, [r7, #12]
 2388 01aa 1B68     		ldr	r3, [r3]
 2389 01ac 42F40072 		orr	r2, r2, #512
 2390 01b0 DA60     		str	r2, [r3, #12]
1084:./Drivers/STM32F1xx_HAL_Driver/Src/stm32f1xx_hal_tim.c ****       break;
 2391              		.loc 1 1084 7
 2392 01b2 6CE0     		b	.L174
 2393              	.L171:
1085:./Drivers/STM32F1xx_HAL_Driver/Src/stm32f1xx_hal_tim.c ****     }
1086:./Drivers/STM32F1xx_HAL_Driver/Src/stm32f1xx_hal_tim.c **** 
1087:./Drivers/STM32F1xx_HAL_Driver/Src/stm32f1xx_hal_tim.c ****     case TIM_CHANNEL_2:
1088:./Drivers/STM32F1xx_HAL_Driver/Src/stm32f1xx_hal_tim.c ****     {
1089:./Drivers/STM32F1xx_HAL_Driver/Src/stm32f1xx_hal_tim.c ****       /* Set the DMA compare callbacks */
1090:./Drivers/STM32F1xx_HAL_Driver/Src/stm32f1xx_hal_tim.c ****       htim->hdma[TIM_DMA_ID_CC2]->XferCpltCallback = TIM_DMADelayPulseCplt;
 2394              		.loc 1 1090 17
 2395 01b4 FB68     		ldr	r3, [r7, #12]
 2396 01b6 9B6A     		ldr	r3, [r3, #40]
 2397              		.loc 1 1090 52
 2398 01b8 584A     		ldr	r2, .L184
 2399 01ba 9A62     		str	r2, [r3, #40]
1091:./Drivers/STM32F1xx_HAL_Driver/Src/stm32f1xx_hal_tim.c ****       htim->hdma[TIM_DMA_ID_CC2]->XferHalfCpltCallback = TIM_DMADelayPulseHalfCplt;
 2400              		.loc 1 1091 17
 2401 01bc FB68     		ldr	r3, [r7, #12]
 2402 01be 9B6A     		ldr	r3, [r3, #40]
 2403              		.loc 1 1091 56
 2404 01c0 574A     		ldr	r2, .L184+4
 2405 01c2 DA62     		str	r2, [r3, #44]
1092:./Drivers/STM32F1xx_HAL_Driver/Src/stm32f1xx_hal_tim.c **** 
1093:./Drivers/STM32F1xx_HAL_Driver/Src/stm32f1xx_hal_tim.c ****       /* Set the DMA error callback */
1094:./Drivers/STM32F1xx_HAL_Driver/Src/stm32f1xx_hal_tim.c ****       htim->hdma[TIM_DMA_ID_CC2]->XferErrorCallback = TIM_DMAError ;
 2406              		.loc 1 1094 17
 2407 01c4 FB68     		ldr	r3, [r7, #12]
 2408 01c6 9B6A     		ldr	r3, [r3, #40]
 2409              		.loc 1 1094 53
 2410 01c8 564A     		ldr	r2, .L184+8
 2411 01ca 1A63     		str	r2, [r3, #48]
1095:./Drivers/STM32F1xx_HAL_Driver/Src/stm32f1xx_hal_tim.c **** 
1096:./Drivers/STM32F1xx_HAL_Driver/Src/stm32f1xx_hal_tim.c ****       /* Enable the DMA channel */
1097:./Drivers/STM32F1xx_HAL_Driver/Src/stm32f1xx_hal_tim.c ****       if (HAL_DMA_Start_IT(htim->hdma[TIM_DMA_ID_CC2], (uint32_t)pData, (uint32_t)&htim->Instance->
ARM GAS  C:\Users\phucd\AppData\Local\Temp\ccc4tAyX.s 			page 62


 2412              		.loc 1 1097 11
 2413 01cc FB68     		ldr	r3, [r7, #12]
 2414 01ce 986A     		ldr	r0, [r3, #40]
 2415 01d0 7968     		ldr	r1, [r7, #4]
 2416              		.loc 1 1097 88
 2417 01d2 FB68     		ldr	r3, [r7, #12]
 2418 01d4 1B68     		ldr	r3, [r3]
 2419              		.loc 1 1097 83
 2420 01d6 3833     		adds	r3, r3, #56
 2421              		.loc 1 1097 11
 2422 01d8 1A46     		mov	r2, r3
 2423 01da 7B88     		ldrh	r3, [r7, #2]
 2424 01dc FFF7FEFF 		bl	HAL_DMA_Start_IT
 2425 01e0 0346     		mov	r3, r0
 2426              		.loc 1 1097 10
 2427 01e2 002B     		cmp	r3, #0
 2428 01e4 01D0     		beq	.L175
1098:./Drivers/STM32F1xx_HAL_Driver/Src/stm32f1xx_hal_tim.c ****                          Length) != HAL_OK)
1099:./Drivers/STM32F1xx_HAL_Driver/Src/stm32f1xx_hal_tim.c ****       {
1100:./Drivers/STM32F1xx_HAL_Driver/Src/stm32f1xx_hal_tim.c ****         /* Return error status */
1101:./Drivers/STM32F1xx_HAL_Driver/Src/stm32f1xx_hal_tim.c ****         return HAL_ERROR;
 2429              		.loc 1 1101 16
 2430 01e6 0123     		movs	r3, #1
 2431 01e8 94E0     		b	.L152
 2432              	.L175:
1102:./Drivers/STM32F1xx_HAL_Driver/Src/stm32f1xx_hal_tim.c ****       }
1103:./Drivers/STM32F1xx_HAL_Driver/Src/stm32f1xx_hal_tim.c **** 
1104:./Drivers/STM32F1xx_HAL_Driver/Src/stm32f1xx_hal_tim.c ****       /* Enable the TIM Capture/Compare 2 DMA request */
1105:./Drivers/STM32F1xx_HAL_Driver/Src/stm32f1xx_hal_tim.c ****       __HAL_TIM_ENABLE_DMA(htim, TIM_DMA_CC2);
 2433              		.loc 1 1105 7
 2434 01ea FB68     		ldr	r3, [r7, #12]
 2435 01ec 1B68     		ldr	r3, [r3]
 2436 01ee DA68     		ldr	r2, [r3, #12]
 2437 01f0 FB68     		ldr	r3, [r7, #12]
 2438 01f2 1B68     		ldr	r3, [r3]
 2439 01f4 42F48062 		orr	r2, r2, #1024
 2440 01f8 DA60     		str	r2, [r3, #12]
1106:./Drivers/STM32F1xx_HAL_Driver/Src/stm32f1xx_hal_tim.c ****       break;
 2441              		.loc 1 1106 7
 2442 01fa 48E0     		b	.L174
 2443              	.L170:
1107:./Drivers/STM32F1xx_HAL_Driver/Src/stm32f1xx_hal_tim.c ****     }
1108:./Drivers/STM32F1xx_HAL_Driver/Src/stm32f1xx_hal_tim.c **** 
1109:./Drivers/STM32F1xx_HAL_Driver/Src/stm32f1xx_hal_tim.c ****     case TIM_CHANNEL_3:
1110:./Drivers/STM32F1xx_HAL_Driver/Src/stm32f1xx_hal_tim.c ****     {
1111:./Drivers/STM32F1xx_HAL_Driver/Src/stm32f1xx_hal_tim.c ****       /* Set the DMA compare callbacks */
1112:./Drivers/STM32F1xx_HAL_Driver/Src/stm32f1xx_hal_tim.c ****       htim->hdma[TIM_DMA_ID_CC3]->XferCpltCallback = TIM_DMADelayPulseCplt;
 2444              		.loc 1 1112 17
 2445 01fc FB68     		ldr	r3, [r7, #12]
 2446 01fe DB6A     		ldr	r3, [r3, #44]
 2447              		.loc 1 1112 52
 2448 0200 464A     		ldr	r2, .L184
 2449 0202 9A62     		str	r2, [r3, #40]
1113:./Drivers/STM32F1xx_HAL_Driver/Src/stm32f1xx_hal_tim.c ****       htim->hdma[TIM_DMA_ID_CC3]->XferHalfCpltCallback = TIM_DMADelayPulseHalfCplt;
 2450              		.loc 1 1113 17
 2451 0204 FB68     		ldr	r3, [r7, #12]
 2452 0206 DB6A     		ldr	r3, [r3, #44]
ARM GAS  C:\Users\phucd\AppData\Local\Temp\ccc4tAyX.s 			page 63


 2453              		.loc 1 1113 56
 2454 0208 454A     		ldr	r2, .L184+4
 2455 020a DA62     		str	r2, [r3, #44]
1114:./Drivers/STM32F1xx_HAL_Driver/Src/stm32f1xx_hal_tim.c **** 
1115:./Drivers/STM32F1xx_HAL_Driver/Src/stm32f1xx_hal_tim.c ****       /* Set the DMA error callback */
1116:./Drivers/STM32F1xx_HAL_Driver/Src/stm32f1xx_hal_tim.c ****       htim->hdma[TIM_DMA_ID_CC3]->XferErrorCallback = TIM_DMAError ;
 2456              		.loc 1 1116 17
 2457 020c FB68     		ldr	r3, [r7, #12]
 2458 020e DB6A     		ldr	r3, [r3, #44]
 2459              		.loc 1 1116 53
 2460 0210 444A     		ldr	r2, .L184+8
 2461 0212 1A63     		str	r2, [r3, #48]
1117:./Drivers/STM32F1xx_HAL_Driver/Src/stm32f1xx_hal_tim.c **** 
1118:./Drivers/STM32F1xx_HAL_Driver/Src/stm32f1xx_hal_tim.c ****       /* Enable the DMA channel */
1119:./Drivers/STM32F1xx_HAL_Driver/Src/stm32f1xx_hal_tim.c ****       if (HAL_DMA_Start_IT(htim->hdma[TIM_DMA_ID_CC3], (uint32_t)pData, (uint32_t)&htim->Instance->
 2462              		.loc 1 1119 11
 2463 0214 FB68     		ldr	r3, [r7, #12]
 2464 0216 D86A     		ldr	r0, [r3, #44]
 2465 0218 7968     		ldr	r1, [r7, #4]
 2466              		.loc 1 1119 88
 2467 021a FB68     		ldr	r3, [r7, #12]
 2468 021c 1B68     		ldr	r3, [r3]
 2469              		.loc 1 1119 83
 2470 021e 3C33     		adds	r3, r3, #60
 2471              		.loc 1 1119 11
 2472 0220 1A46     		mov	r2, r3
 2473 0222 7B88     		ldrh	r3, [r7, #2]
 2474 0224 FFF7FEFF 		bl	HAL_DMA_Start_IT
 2475 0228 0346     		mov	r3, r0
 2476              		.loc 1 1119 10
 2477 022a 002B     		cmp	r3, #0
 2478 022c 01D0     		beq	.L176
1120:./Drivers/STM32F1xx_HAL_Driver/Src/stm32f1xx_hal_tim.c ****                          Length) != HAL_OK)
1121:./Drivers/STM32F1xx_HAL_Driver/Src/stm32f1xx_hal_tim.c ****       {
1122:./Drivers/STM32F1xx_HAL_Driver/Src/stm32f1xx_hal_tim.c ****         /* Return error status */
1123:./Drivers/STM32F1xx_HAL_Driver/Src/stm32f1xx_hal_tim.c ****         return HAL_ERROR;
 2479              		.loc 1 1123 16
 2480 022e 0123     		movs	r3, #1
 2481 0230 70E0     		b	.L152
 2482              	.L176:
1124:./Drivers/STM32F1xx_HAL_Driver/Src/stm32f1xx_hal_tim.c ****       }
1125:./Drivers/STM32F1xx_HAL_Driver/Src/stm32f1xx_hal_tim.c ****       /* Enable the TIM Capture/Compare 3 DMA request */
1126:./Drivers/STM32F1xx_HAL_Driver/Src/stm32f1xx_hal_tim.c ****       __HAL_TIM_ENABLE_DMA(htim, TIM_DMA_CC3);
 2483              		.loc 1 1126 7
 2484 0232 FB68     		ldr	r3, [r7, #12]
 2485 0234 1B68     		ldr	r3, [r3]
 2486 0236 DA68     		ldr	r2, [r3, #12]
 2487 0238 FB68     		ldr	r3, [r7, #12]
 2488 023a 1B68     		ldr	r3, [r3]
 2489 023c 42F40062 		orr	r2, r2, #2048
 2490 0240 DA60     		str	r2, [r3, #12]
1127:./Drivers/STM32F1xx_HAL_Driver/Src/stm32f1xx_hal_tim.c ****       break;
 2491              		.loc 1 1127 7
 2492 0242 24E0     		b	.L174
 2493              	.L168:
1128:./Drivers/STM32F1xx_HAL_Driver/Src/stm32f1xx_hal_tim.c ****     }
1129:./Drivers/STM32F1xx_HAL_Driver/Src/stm32f1xx_hal_tim.c **** 
ARM GAS  C:\Users\phucd\AppData\Local\Temp\ccc4tAyX.s 			page 64


1130:./Drivers/STM32F1xx_HAL_Driver/Src/stm32f1xx_hal_tim.c ****     case TIM_CHANNEL_4:
1131:./Drivers/STM32F1xx_HAL_Driver/Src/stm32f1xx_hal_tim.c ****     {
1132:./Drivers/STM32F1xx_HAL_Driver/Src/stm32f1xx_hal_tim.c ****       /* Set the DMA compare callbacks */
1133:./Drivers/STM32F1xx_HAL_Driver/Src/stm32f1xx_hal_tim.c ****       htim->hdma[TIM_DMA_ID_CC4]->XferCpltCallback = TIM_DMADelayPulseCplt;
 2494              		.loc 1 1133 17
 2495 0244 FB68     		ldr	r3, [r7, #12]
 2496 0246 1B6B     		ldr	r3, [r3, #48]
 2497              		.loc 1 1133 52
 2498 0248 344A     		ldr	r2, .L184
 2499 024a 9A62     		str	r2, [r3, #40]
1134:./Drivers/STM32F1xx_HAL_Driver/Src/stm32f1xx_hal_tim.c ****       htim->hdma[TIM_DMA_ID_CC4]->XferHalfCpltCallback = TIM_DMADelayPulseHalfCplt;
 2500              		.loc 1 1134 17
 2501 024c FB68     		ldr	r3, [r7, #12]
 2502 024e 1B6B     		ldr	r3, [r3, #48]
 2503              		.loc 1 1134 56
 2504 0250 334A     		ldr	r2, .L184+4
 2505 0252 DA62     		str	r2, [r3, #44]
1135:./Drivers/STM32F1xx_HAL_Driver/Src/stm32f1xx_hal_tim.c **** 
1136:./Drivers/STM32F1xx_HAL_Driver/Src/stm32f1xx_hal_tim.c ****       /* Set the DMA error callback */
1137:./Drivers/STM32F1xx_HAL_Driver/Src/stm32f1xx_hal_tim.c ****       htim->hdma[TIM_DMA_ID_CC4]->XferErrorCallback = TIM_DMAError ;
 2506              		.loc 1 1137 17
 2507 0254 FB68     		ldr	r3, [r7, #12]
 2508 0256 1B6B     		ldr	r3, [r3, #48]
 2509              		.loc 1 1137 53
 2510 0258 324A     		ldr	r2, .L184+8
 2511 025a 1A63     		str	r2, [r3, #48]
1138:./Drivers/STM32F1xx_HAL_Driver/Src/stm32f1xx_hal_tim.c **** 
1139:./Drivers/STM32F1xx_HAL_Driver/Src/stm32f1xx_hal_tim.c ****       /* Enable the DMA channel */
1140:./Drivers/STM32F1xx_HAL_Driver/Src/stm32f1xx_hal_tim.c ****       if (HAL_DMA_Start_IT(htim->hdma[TIM_DMA_ID_CC4], (uint32_t)pData, (uint32_t)&htim->Instance->
 2512              		.loc 1 1140 11
 2513 025c FB68     		ldr	r3, [r7, #12]
 2514 025e 186B     		ldr	r0, [r3, #48]
 2515 0260 7968     		ldr	r1, [r7, #4]
 2516              		.loc 1 1140 88
 2517 0262 FB68     		ldr	r3, [r7, #12]
 2518 0264 1B68     		ldr	r3, [r3]
 2519              		.loc 1 1140 83
 2520 0266 4033     		adds	r3, r3, #64
 2521              		.loc 1 1140 11
 2522 0268 1A46     		mov	r2, r3
 2523 026a 7B88     		ldrh	r3, [r7, #2]
 2524 026c FFF7FEFF 		bl	HAL_DMA_Start_IT
 2525 0270 0346     		mov	r3, r0
 2526              		.loc 1 1140 10
 2527 0272 002B     		cmp	r3, #0
 2528 0274 01D0     		beq	.L177
1141:./Drivers/STM32F1xx_HAL_Driver/Src/stm32f1xx_hal_tim.c ****                          Length) != HAL_OK)
1142:./Drivers/STM32F1xx_HAL_Driver/Src/stm32f1xx_hal_tim.c ****       {
1143:./Drivers/STM32F1xx_HAL_Driver/Src/stm32f1xx_hal_tim.c ****         /* Return error status */
1144:./Drivers/STM32F1xx_HAL_Driver/Src/stm32f1xx_hal_tim.c ****         return HAL_ERROR;
 2529              		.loc 1 1144 16
 2530 0276 0123     		movs	r3, #1
 2531 0278 4CE0     		b	.L152
 2532              	.L177:
1145:./Drivers/STM32F1xx_HAL_Driver/Src/stm32f1xx_hal_tim.c ****       }
1146:./Drivers/STM32F1xx_HAL_Driver/Src/stm32f1xx_hal_tim.c ****       /* Enable the TIM Capture/Compare 4 DMA request */
1147:./Drivers/STM32F1xx_HAL_Driver/Src/stm32f1xx_hal_tim.c ****       __HAL_TIM_ENABLE_DMA(htim, TIM_DMA_CC4);
ARM GAS  C:\Users\phucd\AppData\Local\Temp\ccc4tAyX.s 			page 65


 2533              		.loc 1 1147 7
 2534 027a FB68     		ldr	r3, [r7, #12]
 2535 027c 1B68     		ldr	r3, [r3]
 2536 027e DA68     		ldr	r2, [r3, #12]
 2537 0280 FB68     		ldr	r3, [r7, #12]
 2538 0282 1B68     		ldr	r3, [r3]
 2539 0284 42F48052 		orr	r2, r2, #4096
 2540 0288 DA60     		str	r2, [r3, #12]
1148:./Drivers/STM32F1xx_HAL_Driver/Src/stm32f1xx_hal_tim.c ****       break;
 2541              		.loc 1 1148 7
 2542 028a 00E0     		b	.L174
 2543              	.L183:
1149:./Drivers/STM32F1xx_HAL_Driver/Src/stm32f1xx_hal_tim.c ****     }
1150:./Drivers/STM32F1xx_HAL_Driver/Src/stm32f1xx_hal_tim.c **** 
1151:./Drivers/STM32F1xx_HAL_Driver/Src/stm32f1xx_hal_tim.c ****     default:
1152:./Drivers/STM32F1xx_HAL_Driver/Src/stm32f1xx_hal_tim.c ****       break;
 2544              		.loc 1 1152 7
 2545 028c 00BF     		nop
 2546              	.L174:
1153:./Drivers/STM32F1xx_HAL_Driver/Src/stm32f1xx_hal_tim.c ****   }
1154:./Drivers/STM32F1xx_HAL_Driver/Src/stm32f1xx_hal_tim.c **** 
1155:./Drivers/STM32F1xx_HAL_Driver/Src/stm32f1xx_hal_tim.c ****   /* Enable the Output compare channel */
1156:./Drivers/STM32F1xx_HAL_Driver/Src/stm32f1xx_hal_tim.c ****   TIM_CCxChannelCmd(htim->Instance, Channel, TIM_CCx_ENABLE);
 2547              		.loc 1 1156 3
 2548 028e FB68     		ldr	r3, [r7, #12]
 2549 0290 1B68     		ldr	r3, [r3]
 2550 0292 0122     		movs	r2, #1
 2551 0294 B968     		ldr	r1, [r7, #8]
 2552 0296 1846     		mov	r0, r3
 2553 0298 FFF7FEFF 		bl	TIM_CCxChannelCmd
1157:./Drivers/STM32F1xx_HAL_Driver/Src/stm32f1xx_hal_tim.c **** 
1158:./Drivers/STM32F1xx_HAL_Driver/Src/stm32f1xx_hal_tim.c ****   if (IS_TIM_BREAK_INSTANCE(htim->Instance) != RESET)
 2554              		.loc 1 1158 7
 2555 029c FB68     		ldr	r3, [r7, #12]
 2556 029e 1B68     		ldr	r3, [r3]
 2557              		.loc 1 1158 6
 2558 02a0 214A     		ldr	r2, .L184+12
 2559 02a2 9342     		cmp	r3, r2
 2560 02a4 07D1     		bne	.L178
1159:./Drivers/STM32F1xx_HAL_Driver/Src/stm32f1xx_hal_tim.c ****   {
1160:./Drivers/STM32F1xx_HAL_Driver/Src/stm32f1xx_hal_tim.c ****     /* Enable the main output */
1161:./Drivers/STM32F1xx_HAL_Driver/Src/stm32f1xx_hal_tim.c ****     __HAL_TIM_MOE_ENABLE(htim);
 2561              		.loc 1 1161 5
 2562 02a6 FB68     		ldr	r3, [r7, #12]
 2563 02a8 1B68     		ldr	r3, [r3]
 2564 02aa 5A6C     		ldr	r2, [r3, #68]
 2565 02ac FB68     		ldr	r3, [r7, #12]
 2566 02ae 1B68     		ldr	r3, [r3]
 2567 02b0 42F40042 		orr	r2, r2, #32768
 2568 02b4 5A64     		str	r2, [r3, #68]
 2569              	.L178:
1162:./Drivers/STM32F1xx_HAL_Driver/Src/stm32f1xx_hal_tim.c ****   }
1163:./Drivers/STM32F1xx_HAL_Driver/Src/stm32f1xx_hal_tim.c **** 
1164:./Drivers/STM32F1xx_HAL_Driver/Src/stm32f1xx_hal_tim.c ****   /* Enable the Peripheral, except in trigger mode where enable is automatically done with trigger 
1165:./Drivers/STM32F1xx_HAL_Driver/Src/stm32f1xx_hal_tim.c ****   if (IS_TIM_SLAVE_INSTANCE(htim->Instance))
 2570              		.loc 1 1165 7
 2571 02b6 FB68     		ldr	r3, [r7, #12]
ARM GAS  C:\Users\phucd\AppData\Local\Temp\ccc4tAyX.s 			page 66


 2572 02b8 1B68     		ldr	r3, [r3]
 2573              		.loc 1 1165 6
 2574 02ba 1B4A     		ldr	r2, .L184+12
 2575 02bc 9342     		cmp	r3, r2
 2576 02be 0ED0     		beq	.L179
 2577              		.loc 1 1165 7 discriminator 1
 2578 02c0 FB68     		ldr	r3, [r7, #12]
 2579 02c2 1B68     		ldr	r3, [r3]
 2580 02c4 B3F1804F 		cmp	r3, #1073741824
 2581 02c8 09D0     		beq	.L179
 2582              		.loc 1 1165 7 is_stmt 0 discriminator 2
 2583 02ca FB68     		ldr	r3, [r7, #12]
 2584 02cc 1B68     		ldr	r3, [r3]
 2585 02ce 174A     		ldr	r2, .L184+16
 2586 02d0 9342     		cmp	r3, r2
 2587 02d2 04D0     		beq	.L179
 2588              		.loc 1 1165 7 discriminator 3
 2589 02d4 FB68     		ldr	r3, [r7, #12]
 2590 02d6 1B68     		ldr	r3, [r3]
 2591 02d8 154A     		ldr	r2, .L184+20
 2592 02da 9342     		cmp	r3, r2
 2593 02dc 11D1     		bne	.L180
 2594              	.L179:
1166:./Drivers/STM32F1xx_HAL_Driver/Src/stm32f1xx_hal_tim.c ****   {
1167:./Drivers/STM32F1xx_HAL_Driver/Src/stm32f1xx_hal_tim.c ****     tmpsmcr = htim->Instance->SMCR & TIM_SMCR_SMS;
 2595              		.loc 1 1167 19 is_stmt 1
 2596 02de FB68     		ldr	r3, [r7, #12]
 2597 02e0 1B68     		ldr	r3, [r3]
 2598              		.loc 1 1167 29
 2599 02e2 9B68     		ldr	r3, [r3, #8]
 2600              		.loc 1 1167 13
 2601 02e4 03F00703 		and	r3, r3, #7
 2602 02e8 7B61     		str	r3, [r7, #20]
1168:./Drivers/STM32F1xx_HAL_Driver/Src/stm32f1xx_hal_tim.c ****     if (!IS_TIM_SLAVEMODE_TRIGGER_ENABLED(tmpsmcr))
 2603              		.loc 1 1168 8
 2604 02ea 7B69     		ldr	r3, [r7, #20]
 2605 02ec 062B     		cmp	r3, #6
 2606 02ee 10D0     		beq	.L182
1169:./Drivers/STM32F1xx_HAL_Driver/Src/stm32f1xx_hal_tim.c ****     {
1170:./Drivers/STM32F1xx_HAL_Driver/Src/stm32f1xx_hal_tim.c ****       __HAL_TIM_ENABLE(htim);
 2607              		.loc 1 1170 7
 2608 02f0 FB68     		ldr	r3, [r7, #12]
 2609 02f2 1B68     		ldr	r3, [r3]
 2610 02f4 1A68     		ldr	r2, [r3]
 2611 02f6 FB68     		ldr	r3, [r7, #12]
 2612 02f8 1B68     		ldr	r3, [r3]
 2613 02fa 42F00102 		orr	r2, r2, #1
 2614 02fe 1A60     		str	r2, [r3]
1168:./Drivers/STM32F1xx_HAL_Driver/Src/stm32f1xx_hal_tim.c ****     if (!IS_TIM_SLAVEMODE_TRIGGER_ENABLED(tmpsmcr))
 2615              		.loc 1 1168 8
 2616 0300 07E0     		b	.L182
 2617              	.L180:
1171:./Drivers/STM32F1xx_HAL_Driver/Src/stm32f1xx_hal_tim.c ****     }
1172:./Drivers/STM32F1xx_HAL_Driver/Src/stm32f1xx_hal_tim.c ****   }
1173:./Drivers/STM32F1xx_HAL_Driver/Src/stm32f1xx_hal_tim.c ****   else
1174:./Drivers/STM32F1xx_HAL_Driver/Src/stm32f1xx_hal_tim.c ****   {
1175:./Drivers/STM32F1xx_HAL_Driver/Src/stm32f1xx_hal_tim.c ****     __HAL_TIM_ENABLE(htim);
ARM GAS  C:\Users\phucd\AppData\Local\Temp\ccc4tAyX.s 			page 67


 2618              		.loc 1 1175 5
 2619 0302 FB68     		ldr	r3, [r7, #12]
 2620 0304 1B68     		ldr	r3, [r3]
 2621 0306 1A68     		ldr	r2, [r3]
 2622 0308 FB68     		ldr	r3, [r7, #12]
 2623 030a 1B68     		ldr	r3, [r3]
 2624 030c 42F00102 		orr	r2, r2, #1
 2625 0310 1A60     		str	r2, [r3]
 2626              	.L182:
1176:./Drivers/STM32F1xx_HAL_Driver/Src/stm32f1xx_hal_tim.c ****   }
1177:./Drivers/STM32F1xx_HAL_Driver/Src/stm32f1xx_hal_tim.c **** 
1178:./Drivers/STM32F1xx_HAL_Driver/Src/stm32f1xx_hal_tim.c ****   /* Return function status */
1179:./Drivers/STM32F1xx_HAL_Driver/Src/stm32f1xx_hal_tim.c ****   return HAL_OK;
 2627              		.loc 1 1179 10
 2628 0312 0023     		movs	r3, #0
 2629              	.L152:
1180:./Drivers/STM32F1xx_HAL_Driver/Src/stm32f1xx_hal_tim.c **** }
 2630              		.loc 1 1180 1
 2631 0314 1846     		mov	r0, r3
 2632 0316 1837     		adds	r7, r7, #24
 2633              		.cfi_def_cfa_offset 8
 2634 0318 BD46     		mov	sp, r7
 2635              		.cfi_def_cfa_register 13
 2636              		@ sp needed
 2637 031a 80BD     		pop	{r7, pc}
 2638              	.L185:
 2639              		.align	2
 2640              	.L184:
 2641 031c 00000000 		.word	TIM_DMADelayPulseCplt
 2642 0320 00000000 		.word	TIM_DMADelayPulseHalfCplt
 2643 0324 00000000 		.word	TIM_DMAError
 2644 0328 002C0140 		.word	1073818624
 2645 032c 00040040 		.word	1073742848
 2646 0330 00080040 		.word	1073743872
 2647              		.cfi_endproc
 2648              	.LFE83:
 2650              		.section	.text.HAL_TIM_OC_Stop_DMA,"ax",%progbits
 2651              		.align	1
 2652              		.global	HAL_TIM_OC_Stop_DMA
 2653              		.syntax unified
 2654              		.thumb
 2655              		.thumb_func
 2656              		.fpu softvfp
 2658              	HAL_TIM_OC_Stop_DMA:
 2659              	.LFB84:
1181:./Drivers/STM32F1xx_HAL_Driver/Src/stm32f1xx_hal_tim.c **** 
1182:./Drivers/STM32F1xx_HAL_Driver/Src/stm32f1xx_hal_tim.c **** /**
1183:./Drivers/STM32F1xx_HAL_Driver/Src/stm32f1xx_hal_tim.c ****   * @brief  Stops the TIM Output Compare signal generation in DMA mode.
1184:./Drivers/STM32F1xx_HAL_Driver/Src/stm32f1xx_hal_tim.c ****   * @param  htim TIM Output Compare handle
1185:./Drivers/STM32F1xx_HAL_Driver/Src/stm32f1xx_hal_tim.c ****   * @param  Channel TIM Channel to be disabled
1186:./Drivers/STM32F1xx_HAL_Driver/Src/stm32f1xx_hal_tim.c ****   *          This parameter can be one of the following values:
1187:./Drivers/STM32F1xx_HAL_Driver/Src/stm32f1xx_hal_tim.c ****   *            @arg TIM_CHANNEL_1: TIM Channel 1 selected
1188:./Drivers/STM32F1xx_HAL_Driver/Src/stm32f1xx_hal_tim.c ****   *            @arg TIM_CHANNEL_2: TIM Channel 2 selected
1189:./Drivers/STM32F1xx_HAL_Driver/Src/stm32f1xx_hal_tim.c ****   *            @arg TIM_CHANNEL_3: TIM Channel 3 selected
1190:./Drivers/STM32F1xx_HAL_Driver/Src/stm32f1xx_hal_tim.c ****   *            @arg TIM_CHANNEL_4: TIM Channel 4 selected
1191:./Drivers/STM32F1xx_HAL_Driver/Src/stm32f1xx_hal_tim.c ****   * @retval HAL status
1192:./Drivers/STM32F1xx_HAL_Driver/Src/stm32f1xx_hal_tim.c ****   */
ARM GAS  C:\Users\phucd\AppData\Local\Temp\ccc4tAyX.s 			page 68


1193:./Drivers/STM32F1xx_HAL_Driver/Src/stm32f1xx_hal_tim.c **** HAL_StatusTypeDef HAL_TIM_OC_Stop_DMA(TIM_HandleTypeDef *htim, uint32_t Channel)
1194:./Drivers/STM32F1xx_HAL_Driver/Src/stm32f1xx_hal_tim.c **** {
 2660              		.loc 1 1194 1
 2661              		.cfi_startproc
 2662              		@ args = 0, pretend = 0, frame = 8
 2663              		@ frame_needed = 1, uses_anonymous_args = 0
 2664 0000 80B5     		push	{r7, lr}
 2665              		.cfi_def_cfa_offset 8
 2666              		.cfi_offset 7, -8
 2667              		.cfi_offset 14, -4
 2668 0002 82B0     		sub	sp, sp, #8
 2669              		.cfi_def_cfa_offset 16
 2670 0004 00AF     		add	r7, sp, #0
 2671              		.cfi_def_cfa_register 7
 2672 0006 7860     		str	r0, [r7, #4]
 2673 0008 3960     		str	r1, [r7]
 2674 000a 3B68     		ldr	r3, [r7]
 2675 000c 0C2B     		cmp	r3, #12
 2676 000e 55D8     		bhi	.L203
 2677 0010 01A2     		adr	r2, .L189
 2678 0012 52F823F0 		ldr	pc, [r2, r3, lsl #2]
 2679 0016 00BF     		.p2align 2
 2680              	.L189:
 2681 0018 4D000000 		.word	.L192+1
 2682 001c BD000000 		.word	.L203+1
 2683 0020 BD000000 		.word	.L203+1
 2684 0024 BD000000 		.word	.L203+1
 2685 0028 69000000 		.word	.L191+1
 2686 002c BD000000 		.word	.L203+1
 2687 0030 BD000000 		.word	.L203+1
 2688 0034 BD000000 		.word	.L203+1
 2689 0038 85000000 		.word	.L190+1
 2690 003c BD000000 		.word	.L203+1
 2691 0040 BD000000 		.word	.L203+1
 2692 0044 BD000000 		.word	.L203+1
 2693 0048 A1000000 		.word	.L188+1
 2694              		.p2align 1
 2695              	.L192:
1195:./Drivers/STM32F1xx_HAL_Driver/Src/stm32f1xx_hal_tim.c ****   /* Check the parameters */
1196:./Drivers/STM32F1xx_HAL_Driver/Src/stm32f1xx_hal_tim.c ****   assert_param(IS_TIM_CCX_INSTANCE(htim->Instance, Channel));
1197:./Drivers/STM32F1xx_HAL_Driver/Src/stm32f1xx_hal_tim.c **** 
1198:./Drivers/STM32F1xx_HAL_Driver/Src/stm32f1xx_hal_tim.c ****   switch (Channel)
1199:./Drivers/STM32F1xx_HAL_Driver/Src/stm32f1xx_hal_tim.c ****   {
1200:./Drivers/STM32F1xx_HAL_Driver/Src/stm32f1xx_hal_tim.c ****     case TIM_CHANNEL_1:
1201:./Drivers/STM32F1xx_HAL_Driver/Src/stm32f1xx_hal_tim.c ****     {
1202:./Drivers/STM32F1xx_HAL_Driver/Src/stm32f1xx_hal_tim.c ****       /* Disable the TIM Capture/Compare 1 DMA request */
1203:./Drivers/STM32F1xx_HAL_Driver/Src/stm32f1xx_hal_tim.c ****       __HAL_TIM_DISABLE_DMA(htim, TIM_DMA_CC1);
 2696              		.loc 1 1203 7
 2697 004c 7B68     		ldr	r3, [r7, #4]
 2698 004e 1B68     		ldr	r3, [r3]
 2699 0050 DA68     		ldr	r2, [r3, #12]
 2700 0052 7B68     		ldr	r3, [r7, #4]
 2701 0054 1B68     		ldr	r3, [r3]
 2702 0056 22F40072 		bic	r2, r2, #512
 2703 005a DA60     		str	r2, [r3, #12]
1204:./Drivers/STM32F1xx_HAL_Driver/Src/stm32f1xx_hal_tim.c ****       (void)HAL_DMA_Abort_IT(htim->hdma[TIM_DMA_ID_CC1]);
 2704              		.loc 1 1204 13
ARM GAS  C:\Users\phucd\AppData\Local\Temp\ccc4tAyX.s 			page 69


 2705 005c 7B68     		ldr	r3, [r7, #4]
 2706 005e 5B6A     		ldr	r3, [r3, #36]
 2707 0060 1846     		mov	r0, r3
 2708 0062 FFF7FEFF 		bl	HAL_DMA_Abort_IT
1205:./Drivers/STM32F1xx_HAL_Driver/Src/stm32f1xx_hal_tim.c ****       break;
 2709              		.loc 1 1205 7
 2710 0066 2AE0     		b	.L193
 2711              	.L191:
1206:./Drivers/STM32F1xx_HAL_Driver/Src/stm32f1xx_hal_tim.c ****     }
1207:./Drivers/STM32F1xx_HAL_Driver/Src/stm32f1xx_hal_tim.c **** 
1208:./Drivers/STM32F1xx_HAL_Driver/Src/stm32f1xx_hal_tim.c ****     case TIM_CHANNEL_2:
1209:./Drivers/STM32F1xx_HAL_Driver/Src/stm32f1xx_hal_tim.c ****     {
1210:./Drivers/STM32F1xx_HAL_Driver/Src/stm32f1xx_hal_tim.c ****       /* Disable the TIM Capture/Compare 2 DMA request */
1211:./Drivers/STM32F1xx_HAL_Driver/Src/stm32f1xx_hal_tim.c ****       __HAL_TIM_DISABLE_DMA(htim, TIM_DMA_CC2);
 2712              		.loc 1 1211 7
 2713 0068 7B68     		ldr	r3, [r7, #4]
 2714 006a 1B68     		ldr	r3, [r3]
 2715 006c DA68     		ldr	r2, [r3, #12]
 2716 006e 7B68     		ldr	r3, [r7, #4]
 2717 0070 1B68     		ldr	r3, [r3]
 2718 0072 22F48062 		bic	r2, r2, #1024
 2719 0076 DA60     		str	r2, [r3, #12]
1212:./Drivers/STM32F1xx_HAL_Driver/Src/stm32f1xx_hal_tim.c ****       (void)HAL_DMA_Abort_IT(htim->hdma[TIM_DMA_ID_CC2]);
 2720              		.loc 1 1212 13
 2721 0078 7B68     		ldr	r3, [r7, #4]
 2722 007a 9B6A     		ldr	r3, [r3, #40]
 2723 007c 1846     		mov	r0, r3
 2724 007e FFF7FEFF 		bl	HAL_DMA_Abort_IT
1213:./Drivers/STM32F1xx_HAL_Driver/Src/stm32f1xx_hal_tim.c ****       break;
 2725              		.loc 1 1213 7
 2726 0082 1CE0     		b	.L193
 2727              	.L190:
1214:./Drivers/STM32F1xx_HAL_Driver/Src/stm32f1xx_hal_tim.c ****     }
1215:./Drivers/STM32F1xx_HAL_Driver/Src/stm32f1xx_hal_tim.c **** 
1216:./Drivers/STM32F1xx_HAL_Driver/Src/stm32f1xx_hal_tim.c ****     case TIM_CHANNEL_3:
1217:./Drivers/STM32F1xx_HAL_Driver/Src/stm32f1xx_hal_tim.c ****     {
1218:./Drivers/STM32F1xx_HAL_Driver/Src/stm32f1xx_hal_tim.c ****       /* Disable the TIM Capture/Compare 3 DMA request */
1219:./Drivers/STM32F1xx_HAL_Driver/Src/stm32f1xx_hal_tim.c ****       __HAL_TIM_DISABLE_DMA(htim, TIM_DMA_CC3);
 2728              		.loc 1 1219 7
 2729 0084 7B68     		ldr	r3, [r7, #4]
 2730 0086 1B68     		ldr	r3, [r3]
 2731 0088 DA68     		ldr	r2, [r3, #12]
 2732 008a 7B68     		ldr	r3, [r7, #4]
 2733 008c 1B68     		ldr	r3, [r3]
 2734 008e 22F40062 		bic	r2, r2, #2048
 2735 0092 DA60     		str	r2, [r3, #12]
1220:./Drivers/STM32F1xx_HAL_Driver/Src/stm32f1xx_hal_tim.c ****       (void)HAL_DMA_Abort_IT(htim->hdma[TIM_DMA_ID_CC3]);
 2736              		.loc 1 1220 13
 2737 0094 7B68     		ldr	r3, [r7, #4]
 2738 0096 DB6A     		ldr	r3, [r3, #44]
 2739 0098 1846     		mov	r0, r3
 2740 009a FFF7FEFF 		bl	HAL_DMA_Abort_IT
1221:./Drivers/STM32F1xx_HAL_Driver/Src/stm32f1xx_hal_tim.c ****       break;
 2741              		.loc 1 1221 7
 2742 009e 0EE0     		b	.L193
 2743              	.L188:
1222:./Drivers/STM32F1xx_HAL_Driver/Src/stm32f1xx_hal_tim.c ****     }
ARM GAS  C:\Users\phucd\AppData\Local\Temp\ccc4tAyX.s 			page 70


1223:./Drivers/STM32F1xx_HAL_Driver/Src/stm32f1xx_hal_tim.c **** 
1224:./Drivers/STM32F1xx_HAL_Driver/Src/stm32f1xx_hal_tim.c ****     case TIM_CHANNEL_4:
1225:./Drivers/STM32F1xx_HAL_Driver/Src/stm32f1xx_hal_tim.c ****     {
1226:./Drivers/STM32F1xx_HAL_Driver/Src/stm32f1xx_hal_tim.c ****       /* Disable the TIM Capture/Compare 4 interrupt */
1227:./Drivers/STM32F1xx_HAL_Driver/Src/stm32f1xx_hal_tim.c ****       __HAL_TIM_DISABLE_DMA(htim, TIM_DMA_CC4);
 2744              		.loc 1 1227 7
 2745 00a0 7B68     		ldr	r3, [r7, #4]
 2746 00a2 1B68     		ldr	r3, [r3]
 2747 00a4 DA68     		ldr	r2, [r3, #12]
 2748 00a6 7B68     		ldr	r3, [r7, #4]
 2749 00a8 1B68     		ldr	r3, [r3]
 2750 00aa 22F48052 		bic	r2, r2, #4096
 2751 00ae DA60     		str	r2, [r3, #12]
1228:./Drivers/STM32F1xx_HAL_Driver/Src/stm32f1xx_hal_tim.c ****       (void)HAL_DMA_Abort_IT(htim->hdma[TIM_DMA_ID_CC4]);
 2752              		.loc 1 1228 13
 2753 00b0 7B68     		ldr	r3, [r7, #4]
 2754 00b2 1B6B     		ldr	r3, [r3, #48]
 2755 00b4 1846     		mov	r0, r3
 2756 00b6 FFF7FEFF 		bl	HAL_DMA_Abort_IT
1229:./Drivers/STM32F1xx_HAL_Driver/Src/stm32f1xx_hal_tim.c ****       break;
 2757              		.loc 1 1229 7
 2758 00ba 00E0     		b	.L193
 2759              	.L203:
1230:./Drivers/STM32F1xx_HAL_Driver/Src/stm32f1xx_hal_tim.c ****     }
1231:./Drivers/STM32F1xx_HAL_Driver/Src/stm32f1xx_hal_tim.c **** 
1232:./Drivers/STM32F1xx_HAL_Driver/Src/stm32f1xx_hal_tim.c ****     default:
1233:./Drivers/STM32F1xx_HAL_Driver/Src/stm32f1xx_hal_tim.c ****       break;
 2760              		.loc 1 1233 7
 2761 00bc 00BF     		nop
 2762              	.L193:
1234:./Drivers/STM32F1xx_HAL_Driver/Src/stm32f1xx_hal_tim.c ****   }
1235:./Drivers/STM32F1xx_HAL_Driver/Src/stm32f1xx_hal_tim.c **** 
1236:./Drivers/STM32F1xx_HAL_Driver/Src/stm32f1xx_hal_tim.c ****   /* Disable the Output compare channel */
1237:./Drivers/STM32F1xx_HAL_Driver/Src/stm32f1xx_hal_tim.c ****   TIM_CCxChannelCmd(htim->Instance, Channel, TIM_CCx_DISABLE);
 2763              		.loc 1 1237 3
 2764 00be 7B68     		ldr	r3, [r7, #4]
 2765 00c0 1B68     		ldr	r3, [r3]
 2766 00c2 0022     		movs	r2, #0
 2767 00c4 3968     		ldr	r1, [r7]
 2768 00c6 1846     		mov	r0, r3
 2769 00c8 FFF7FEFF 		bl	TIM_CCxChannelCmd
1238:./Drivers/STM32F1xx_HAL_Driver/Src/stm32f1xx_hal_tim.c **** 
1239:./Drivers/STM32F1xx_HAL_Driver/Src/stm32f1xx_hal_tim.c ****   if (IS_TIM_BREAK_INSTANCE(htim->Instance) != RESET)
 2770              		.loc 1 1239 7
 2771 00cc 7B68     		ldr	r3, [r7, #4]
 2772 00ce 1B68     		ldr	r3, [r3]
 2773              		.loc 1 1239 6
 2774 00d0 294A     		ldr	r2, .L204
 2775 00d2 9342     		cmp	r3, r2
 2776 00d4 17D1     		bne	.L194
1240:./Drivers/STM32F1xx_HAL_Driver/Src/stm32f1xx_hal_tim.c ****   {
1241:./Drivers/STM32F1xx_HAL_Driver/Src/stm32f1xx_hal_tim.c ****     /* Disable the Main Output */
1242:./Drivers/STM32F1xx_HAL_Driver/Src/stm32f1xx_hal_tim.c ****     __HAL_TIM_MOE_DISABLE(htim);
 2777              		.loc 1 1242 5
 2778 00d6 7B68     		ldr	r3, [r7, #4]
 2779 00d8 1B68     		ldr	r3, [r3]
 2780 00da 1A6A     		ldr	r2, [r3, #32]
ARM GAS  C:\Users\phucd\AppData\Local\Temp\ccc4tAyX.s 			page 71


 2781 00dc 41F21113 		movw	r3, #4369
 2782 00e0 1340     		ands	r3, r3, r2
 2783 00e2 002B     		cmp	r3, #0
 2784 00e4 0FD1     		bne	.L194
 2785              		.loc 1 1242 5 is_stmt 0 discriminator 1
 2786 00e6 7B68     		ldr	r3, [r7, #4]
 2787 00e8 1B68     		ldr	r3, [r3]
 2788 00ea 1A6A     		ldr	r2, [r3, #32]
 2789 00ec 40F24443 		movw	r3, #1092
 2790 00f0 1340     		ands	r3, r3, r2
 2791 00f2 002B     		cmp	r3, #0
 2792 00f4 07D1     		bne	.L194
 2793              		.loc 1 1242 5 discriminator 2
 2794 00f6 7B68     		ldr	r3, [r7, #4]
 2795 00f8 1B68     		ldr	r3, [r3]
 2796 00fa 5A6C     		ldr	r2, [r3, #68]
 2797 00fc 7B68     		ldr	r3, [r7, #4]
 2798 00fe 1B68     		ldr	r3, [r3]
 2799 0100 22F40042 		bic	r2, r2, #32768
 2800 0104 5A64     		str	r2, [r3, #68]
 2801              	.L194:
1243:./Drivers/STM32F1xx_HAL_Driver/Src/stm32f1xx_hal_tim.c ****   }
1244:./Drivers/STM32F1xx_HAL_Driver/Src/stm32f1xx_hal_tim.c **** 
1245:./Drivers/STM32F1xx_HAL_Driver/Src/stm32f1xx_hal_tim.c ****   /* Disable the Peripheral */
1246:./Drivers/STM32F1xx_HAL_Driver/Src/stm32f1xx_hal_tim.c ****   __HAL_TIM_DISABLE(htim);
 2802              		.loc 1 1246 3 is_stmt 1
 2803 0106 7B68     		ldr	r3, [r7, #4]
 2804 0108 1B68     		ldr	r3, [r3]
 2805 010a 1A6A     		ldr	r2, [r3, #32]
 2806 010c 41F21113 		movw	r3, #4369
 2807 0110 1340     		ands	r3, r3, r2
 2808 0112 002B     		cmp	r3, #0
 2809 0114 0FD1     		bne	.L195
 2810              		.loc 1 1246 3 is_stmt 0 discriminator 1
 2811 0116 7B68     		ldr	r3, [r7, #4]
 2812 0118 1B68     		ldr	r3, [r3]
 2813 011a 1A6A     		ldr	r2, [r3, #32]
 2814 011c 40F24443 		movw	r3, #1092
 2815 0120 1340     		ands	r3, r3, r2
 2816 0122 002B     		cmp	r3, #0
 2817 0124 07D1     		bne	.L195
 2818              		.loc 1 1246 3 discriminator 2
 2819 0126 7B68     		ldr	r3, [r7, #4]
 2820 0128 1B68     		ldr	r3, [r3]
 2821 012a 1A68     		ldr	r2, [r3]
 2822 012c 7B68     		ldr	r3, [r7, #4]
 2823 012e 1B68     		ldr	r3, [r3]
 2824 0130 22F00102 		bic	r2, r2, #1
 2825 0134 1A60     		str	r2, [r3]
 2826              	.L195:
1247:./Drivers/STM32F1xx_HAL_Driver/Src/stm32f1xx_hal_tim.c **** 
1248:./Drivers/STM32F1xx_HAL_Driver/Src/stm32f1xx_hal_tim.c ****   /* Set the TIM channel state */
1249:./Drivers/STM32F1xx_HAL_Driver/Src/stm32f1xx_hal_tim.c ****   TIM_CHANNEL_STATE_SET(htim, Channel, HAL_TIM_CHANNEL_STATE_READY);
 2827              		.loc 1 1249 3 is_stmt 1
 2828 0136 3B68     		ldr	r3, [r7]
 2829 0138 002B     		cmp	r3, #0
 2830 013a 04D1     		bne	.L196
ARM GAS  C:\Users\phucd\AppData\Local\Temp\ccc4tAyX.s 			page 72


 2831              		.loc 1 1249 3 is_stmt 0 discriminator 1
 2832 013c 7B68     		ldr	r3, [r7, #4]
 2833 013e 0122     		movs	r2, #1
 2834 0140 83F83E20 		strb	r2, [r3, #62]
 2835 0144 13E0     		b	.L197
 2836              	.L196:
 2837              		.loc 1 1249 3 discriminator 2
 2838 0146 3B68     		ldr	r3, [r7]
 2839 0148 042B     		cmp	r3, #4
 2840 014a 04D1     		bne	.L198
 2841              		.loc 1 1249 3 discriminator 3
 2842 014c 7B68     		ldr	r3, [r7, #4]
 2843 014e 0122     		movs	r2, #1
 2844 0150 83F83F20 		strb	r2, [r3, #63]
 2845 0154 0BE0     		b	.L197
 2846              	.L198:
 2847              		.loc 1 1249 3 discriminator 4
 2848 0156 3B68     		ldr	r3, [r7]
 2849 0158 082B     		cmp	r3, #8
 2850 015a 04D1     		bne	.L200
 2851              		.loc 1 1249 3 discriminator 6
 2852 015c 7B68     		ldr	r3, [r7, #4]
 2853 015e 0122     		movs	r2, #1
 2854 0160 83F84020 		strb	r2, [r3, #64]
 2855 0164 03E0     		b	.L197
 2856              	.L200:
 2857              		.loc 1 1249 3 discriminator 7
 2858 0166 7B68     		ldr	r3, [r7, #4]
 2859 0168 0122     		movs	r2, #1
 2860 016a 83F84120 		strb	r2, [r3, #65]
 2861              	.L197:
1250:./Drivers/STM32F1xx_HAL_Driver/Src/stm32f1xx_hal_tim.c **** 
1251:./Drivers/STM32F1xx_HAL_Driver/Src/stm32f1xx_hal_tim.c ****   /* Return function status */
1252:./Drivers/STM32F1xx_HAL_Driver/Src/stm32f1xx_hal_tim.c ****   return HAL_OK;
 2862              		.loc 1 1252 10 is_stmt 1
 2863 016e 0023     		movs	r3, #0
1253:./Drivers/STM32F1xx_HAL_Driver/Src/stm32f1xx_hal_tim.c **** }
 2864              		.loc 1 1253 1
 2865 0170 1846     		mov	r0, r3
 2866 0172 0837     		adds	r7, r7, #8
 2867              		.cfi_def_cfa_offset 8
 2868 0174 BD46     		mov	sp, r7
 2869              		.cfi_def_cfa_register 13
 2870              		@ sp needed
 2871 0176 80BD     		pop	{r7, pc}
 2872              	.L205:
 2873              		.align	2
 2874              	.L204:
 2875 0178 002C0140 		.word	1073818624
 2876              		.cfi_endproc
 2877              	.LFE84:
 2879              		.section	.text.HAL_TIM_PWM_Init,"ax",%progbits
 2880              		.align	1
 2881              		.global	HAL_TIM_PWM_Init
 2882              		.syntax unified
 2883              		.thumb
 2884              		.thumb_func
ARM GAS  C:\Users\phucd\AppData\Local\Temp\ccc4tAyX.s 			page 73


 2885              		.fpu softvfp
 2887              	HAL_TIM_PWM_Init:
 2888              	.LFB85:
1254:./Drivers/STM32F1xx_HAL_Driver/Src/stm32f1xx_hal_tim.c **** 
1255:./Drivers/STM32F1xx_HAL_Driver/Src/stm32f1xx_hal_tim.c **** /**
1256:./Drivers/STM32F1xx_HAL_Driver/Src/stm32f1xx_hal_tim.c ****   * @}
1257:./Drivers/STM32F1xx_HAL_Driver/Src/stm32f1xx_hal_tim.c ****   */
1258:./Drivers/STM32F1xx_HAL_Driver/Src/stm32f1xx_hal_tim.c **** 
1259:./Drivers/STM32F1xx_HAL_Driver/Src/stm32f1xx_hal_tim.c **** /** @defgroup TIM_Exported_Functions_Group3 TIM PWM functions
1260:./Drivers/STM32F1xx_HAL_Driver/Src/stm32f1xx_hal_tim.c ****   *  @brief    TIM PWM functions
1261:./Drivers/STM32F1xx_HAL_Driver/Src/stm32f1xx_hal_tim.c ****   *
1262:./Drivers/STM32F1xx_HAL_Driver/Src/stm32f1xx_hal_tim.c **** @verbatim
1263:./Drivers/STM32F1xx_HAL_Driver/Src/stm32f1xx_hal_tim.c ****   ==============================================================================
1264:./Drivers/STM32F1xx_HAL_Driver/Src/stm32f1xx_hal_tim.c ****                           ##### TIM PWM functions #####
1265:./Drivers/STM32F1xx_HAL_Driver/Src/stm32f1xx_hal_tim.c ****   ==============================================================================
1266:./Drivers/STM32F1xx_HAL_Driver/Src/stm32f1xx_hal_tim.c ****   [..]
1267:./Drivers/STM32F1xx_HAL_Driver/Src/stm32f1xx_hal_tim.c ****     This section provides functions allowing to:
1268:./Drivers/STM32F1xx_HAL_Driver/Src/stm32f1xx_hal_tim.c ****     (+) Initialize and configure the TIM PWM.
1269:./Drivers/STM32F1xx_HAL_Driver/Src/stm32f1xx_hal_tim.c ****     (+) De-initialize the TIM PWM.
1270:./Drivers/STM32F1xx_HAL_Driver/Src/stm32f1xx_hal_tim.c ****     (+) Start the TIM PWM.
1271:./Drivers/STM32F1xx_HAL_Driver/Src/stm32f1xx_hal_tim.c ****     (+) Stop the TIM PWM.
1272:./Drivers/STM32F1xx_HAL_Driver/Src/stm32f1xx_hal_tim.c ****     (+) Start the TIM PWM and enable interrupt.
1273:./Drivers/STM32F1xx_HAL_Driver/Src/stm32f1xx_hal_tim.c ****     (+) Stop the TIM PWM and disable interrupt.
1274:./Drivers/STM32F1xx_HAL_Driver/Src/stm32f1xx_hal_tim.c ****     (+) Start the TIM PWM and enable DMA transfer.
1275:./Drivers/STM32F1xx_HAL_Driver/Src/stm32f1xx_hal_tim.c ****     (+) Stop the TIM PWM and disable DMA transfer.
1276:./Drivers/STM32F1xx_HAL_Driver/Src/stm32f1xx_hal_tim.c **** 
1277:./Drivers/STM32F1xx_HAL_Driver/Src/stm32f1xx_hal_tim.c **** @endverbatim
1278:./Drivers/STM32F1xx_HAL_Driver/Src/stm32f1xx_hal_tim.c ****   * @{
1279:./Drivers/STM32F1xx_HAL_Driver/Src/stm32f1xx_hal_tim.c ****   */
1280:./Drivers/STM32F1xx_HAL_Driver/Src/stm32f1xx_hal_tim.c **** /**
1281:./Drivers/STM32F1xx_HAL_Driver/Src/stm32f1xx_hal_tim.c ****   * @brief  Initializes the TIM PWM Time Base according to the specified
1282:./Drivers/STM32F1xx_HAL_Driver/Src/stm32f1xx_hal_tim.c ****   *         parameters in the TIM_HandleTypeDef and initializes the associated handle.
1283:./Drivers/STM32F1xx_HAL_Driver/Src/stm32f1xx_hal_tim.c ****   * @note   Switching from Center Aligned counter mode to Edge counter mode (or reverse)
1284:./Drivers/STM32F1xx_HAL_Driver/Src/stm32f1xx_hal_tim.c ****   *         requires a timer reset to avoid unexpected direction
1285:./Drivers/STM32F1xx_HAL_Driver/Src/stm32f1xx_hal_tim.c ****   *         due to DIR bit readonly in center aligned mode.
1286:./Drivers/STM32F1xx_HAL_Driver/Src/stm32f1xx_hal_tim.c ****   *         Ex: call @ref HAL_TIM_PWM_DeInit() before HAL_TIM_PWM_Init()
1287:./Drivers/STM32F1xx_HAL_Driver/Src/stm32f1xx_hal_tim.c ****   * @param  htim TIM PWM handle
1288:./Drivers/STM32F1xx_HAL_Driver/Src/stm32f1xx_hal_tim.c ****   * @retval HAL status
1289:./Drivers/STM32F1xx_HAL_Driver/Src/stm32f1xx_hal_tim.c ****   */
1290:./Drivers/STM32F1xx_HAL_Driver/Src/stm32f1xx_hal_tim.c **** HAL_StatusTypeDef HAL_TIM_PWM_Init(TIM_HandleTypeDef *htim)
1291:./Drivers/STM32F1xx_HAL_Driver/Src/stm32f1xx_hal_tim.c **** {
 2889              		.loc 1 1291 1
 2890              		.cfi_startproc
 2891              		@ args = 0, pretend = 0, frame = 8
 2892              		@ frame_needed = 1, uses_anonymous_args = 0
 2893 0000 80B5     		push	{r7, lr}
 2894              		.cfi_def_cfa_offset 8
 2895              		.cfi_offset 7, -8
 2896              		.cfi_offset 14, -4
 2897 0002 82B0     		sub	sp, sp, #8
 2898              		.cfi_def_cfa_offset 16
 2899 0004 00AF     		add	r7, sp, #0
 2900              		.cfi_def_cfa_register 7
 2901 0006 7860     		str	r0, [r7, #4]
1292:./Drivers/STM32F1xx_HAL_Driver/Src/stm32f1xx_hal_tim.c ****   /* Check the TIM handle allocation */
1293:./Drivers/STM32F1xx_HAL_Driver/Src/stm32f1xx_hal_tim.c ****   if (htim == NULL)
 2902              		.loc 1 1293 6
ARM GAS  C:\Users\phucd\AppData\Local\Temp\ccc4tAyX.s 			page 74


 2903 0008 7B68     		ldr	r3, [r7, #4]
 2904 000a 002B     		cmp	r3, #0
 2905 000c 01D1     		bne	.L207
1294:./Drivers/STM32F1xx_HAL_Driver/Src/stm32f1xx_hal_tim.c ****   {
1295:./Drivers/STM32F1xx_HAL_Driver/Src/stm32f1xx_hal_tim.c ****     return HAL_ERROR;
 2906              		.loc 1 1295 12
 2907 000e 0123     		movs	r3, #1
 2908 0010 41E0     		b	.L208
 2909              	.L207:
1296:./Drivers/STM32F1xx_HAL_Driver/Src/stm32f1xx_hal_tim.c ****   }
1297:./Drivers/STM32F1xx_HAL_Driver/Src/stm32f1xx_hal_tim.c **** 
1298:./Drivers/STM32F1xx_HAL_Driver/Src/stm32f1xx_hal_tim.c ****   /* Check the parameters */
1299:./Drivers/STM32F1xx_HAL_Driver/Src/stm32f1xx_hal_tim.c ****   assert_param(IS_TIM_INSTANCE(htim->Instance));
1300:./Drivers/STM32F1xx_HAL_Driver/Src/stm32f1xx_hal_tim.c ****   assert_param(IS_TIM_COUNTER_MODE(htim->Init.CounterMode));
1301:./Drivers/STM32F1xx_HAL_Driver/Src/stm32f1xx_hal_tim.c ****   assert_param(IS_TIM_CLOCKDIVISION_DIV(htim->Init.ClockDivision));
1302:./Drivers/STM32F1xx_HAL_Driver/Src/stm32f1xx_hal_tim.c ****   assert_param(IS_TIM_AUTORELOAD_PRELOAD(htim->Init.AutoReloadPreload));
1303:./Drivers/STM32F1xx_HAL_Driver/Src/stm32f1xx_hal_tim.c **** 
1304:./Drivers/STM32F1xx_HAL_Driver/Src/stm32f1xx_hal_tim.c ****   if (htim->State == HAL_TIM_STATE_RESET)
 2910              		.loc 1 1304 11
 2911 0012 7B68     		ldr	r3, [r7, #4]
 2912 0014 93F83D30 		ldrb	r3, [r3, #61]
 2913 0018 DBB2     		uxtb	r3, r3
 2914              		.loc 1 1304 6
 2915 001a 002B     		cmp	r3, #0
 2916 001c 06D1     		bne	.L209
1305:./Drivers/STM32F1xx_HAL_Driver/Src/stm32f1xx_hal_tim.c ****   {
1306:./Drivers/STM32F1xx_HAL_Driver/Src/stm32f1xx_hal_tim.c ****     /* Allocate lock resource and initialize it */
1307:./Drivers/STM32F1xx_HAL_Driver/Src/stm32f1xx_hal_tim.c ****     htim->Lock = HAL_UNLOCKED;
 2917              		.loc 1 1307 16
 2918 001e 7B68     		ldr	r3, [r7, #4]
 2919 0020 0022     		movs	r2, #0
 2920 0022 83F83C20 		strb	r2, [r3, #60]
1308:./Drivers/STM32F1xx_HAL_Driver/Src/stm32f1xx_hal_tim.c **** 
1309:./Drivers/STM32F1xx_HAL_Driver/Src/stm32f1xx_hal_tim.c **** #if (USE_HAL_TIM_REGISTER_CALLBACKS == 1)
1310:./Drivers/STM32F1xx_HAL_Driver/Src/stm32f1xx_hal_tim.c ****     /* Reset interrupt callbacks to legacy weak callbacks */
1311:./Drivers/STM32F1xx_HAL_Driver/Src/stm32f1xx_hal_tim.c ****     TIM_ResetCallback(htim);
1312:./Drivers/STM32F1xx_HAL_Driver/Src/stm32f1xx_hal_tim.c **** 
1313:./Drivers/STM32F1xx_HAL_Driver/Src/stm32f1xx_hal_tim.c ****     if (htim->PWM_MspInitCallback == NULL)
1314:./Drivers/STM32F1xx_HAL_Driver/Src/stm32f1xx_hal_tim.c ****     {
1315:./Drivers/STM32F1xx_HAL_Driver/Src/stm32f1xx_hal_tim.c ****       htim->PWM_MspInitCallback = HAL_TIM_PWM_MspInit;
1316:./Drivers/STM32F1xx_HAL_Driver/Src/stm32f1xx_hal_tim.c ****     }
1317:./Drivers/STM32F1xx_HAL_Driver/Src/stm32f1xx_hal_tim.c ****     /* Init the low level hardware : GPIO, CLOCK, NVIC */
1318:./Drivers/STM32F1xx_HAL_Driver/Src/stm32f1xx_hal_tim.c ****     htim->PWM_MspInitCallback(htim);
1319:./Drivers/STM32F1xx_HAL_Driver/Src/stm32f1xx_hal_tim.c **** #else
1320:./Drivers/STM32F1xx_HAL_Driver/Src/stm32f1xx_hal_tim.c ****     /* Init the low level hardware : GPIO, CLOCK, NVIC and DMA */
1321:./Drivers/STM32F1xx_HAL_Driver/Src/stm32f1xx_hal_tim.c ****     HAL_TIM_PWM_MspInit(htim);
 2921              		.loc 1 1321 5
 2922 0026 7868     		ldr	r0, [r7, #4]
 2923 0028 FFF7FEFF 		bl	HAL_TIM_PWM_MspInit
 2924              	.L209:
1322:./Drivers/STM32F1xx_HAL_Driver/Src/stm32f1xx_hal_tim.c **** #endif /* USE_HAL_TIM_REGISTER_CALLBACKS */
1323:./Drivers/STM32F1xx_HAL_Driver/Src/stm32f1xx_hal_tim.c ****   }
1324:./Drivers/STM32F1xx_HAL_Driver/Src/stm32f1xx_hal_tim.c **** 
1325:./Drivers/STM32F1xx_HAL_Driver/Src/stm32f1xx_hal_tim.c ****   /* Set the TIM state */
1326:./Drivers/STM32F1xx_HAL_Driver/Src/stm32f1xx_hal_tim.c ****   htim->State = HAL_TIM_STATE_BUSY;
 2925              		.loc 1 1326 15
 2926 002c 7B68     		ldr	r3, [r7, #4]
ARM GAS  C:\Users\phucd\AppData\Local\Temp\ccc4tAyX.s 			page 75


 2927 002e 0222     		movs	r2, #2
 2928 0030 83F83D20 		strb	r2, [r3, #61]
1327:./Drivers/STM32F1xx_HAL_Driver/Src/stm32f1xx_hal_tim.c **** 
1328:./Drivers/STM32F1xx_HAL_Driver/Src/stm32f1xx_hal_tim.c ****   /* Init the base time for the PWM */
1329:./Drivers/STM32F1xx_HAL_Driver/Src/stm32f1xx_hal_tim.c ****   TIM_Base_SetConfig(htim->Instance, &htim->Init);
 2929              		.loc 1 1329 3
 2930 0034 7B68     		ldr	r3, [r7, #4]
 2931 0036 1A68     		ldr	r2, [r3]
 2932 0038 7B68     		ldr	r3, [r7, #4]
 2933 003a 0433     		adds	r3, r3, #4
 2934 003c 1946     		mov	r1, r3
 2935 003e 1046     		mov	r0, r2
 2936 0040 FFF7FEFF 		bl	TIM_Base_SetConfig
1330:./Drivers/STM32F1xx_HAL_Driver/Src/stm32f1xx_hal_tim.c **** 
1331:./Drivers/STM32F1xx_HAL_Driver/Src/stm32f1xx_hal_tim.c ****   /* Initialize the DMA burst operation state */
1332:./Drivers/STM32F1xx_HAL_Driver/Src/stm32f1xx_hal_tim.c ****   htim->DMABurstState = HAL_DMA_BURST_STATE_READY;
 2937              		.loc 1 1332 23
 2938 0044 7B68     		ldr	r3, [r7, #4]
 2939 0046 0122     		movs	r2, #1
 2940 0048 83F84620 		strb	r2, [r3, #70]
1333:./Drivers/STM32F1xx_HAL_Driver/Src/stm32f1xx_hal_tim.c **** 
1334:./Drivers/STM32F1xx_HAL_Driver/Src/stm32f1xx_hal_tim.c ****   /* Initialize the TIM channels state */
1335:./Drivers/STM32F1xx_HAL_Driver/Src/stm32f1xx_hal_tim.c ****   TIM_CHANNEL_STATE_SET_ALL(htim, HAL_TIM_CHANNEL_STATE_READY);
 2941              		.loc 1 1335 3
 2942 004c 7B68     		ldr	r3, [r7, #4]
 2943 004e 0122     		movs	r2, #1
 2944 0050 83F83E20 		strb	r2, [r3, #62]
 2945 0054 7B68     		ldr	r3, [r7, #4]
 2946 0056 0122     		movs	r2, #1
 2947 0058 83F83F20 		strb	r2, [r3, #63]
 2948 005c 7B68     		ldr	r3, [r7, #4]
 2949 005e 0122     		movs	r2, #1
 2950 0060 83F84020 		strb	r2, [r3, #64]
 2951 0064 7B68     		ldr	r3, [r7, #4]
 2952 0066 0122     		movs	r2, #1
 2953 0068 83F84120 		strb	r2, [r3, #65]
1336:./Drivers/STM32F1xx_HAL_Driver/Src/stm32f1xx_hal_tim.c ****   TIM_CHANNEL_N_STATE_SET_ALL(htim, HAL_TIM_CHANNEL_STATE_READY);
 2954              		.loc 1 1336 3
 2955 006c 7B68     		ldr	r3, [r7, #4]
 2956 006e 0122     		movs	r2, #1
 2957 0070 83F84220 		strb	r2, [r3, #66]
 2958 0074 7B68     		ldr	r3, [r7, #4]
 2959 0076 0122     		movs	r2, #1
 2960 0078 83F84320 		strb	r2, [r3, #67]
 2961 007c 7B68     		ldr	r3, [r7, #4]
 2962 007e 0122     		movs	r2, #1
 2963 0080 83F84420 		strb	r2, [r3, #68]
 2964 0084 7B68     		ldr	r3, [r7, #4]
 2965 0086 0122     		movs	r2, #1
 2966 0088 83F84520 		strb	r2, [r3, #69]
1337:./Drivers/STM32F1xx_HAL_Driver/Src/stm32f1xx_hal_tim.c **** 
1338:./Drivers/STM32F1xx_HAL_Driver/Src/stm32f1xx_hal_tim.c ****   /* Initialize the TIM state*/
1339:./Drivers/STM32F1xx_HAL_Driver/Src/stm32f1xx_hal_tim.c ****   htim->State = HAL_TIM_STATE_READY;
 2967              		.loc 1 1339 15
 2968 008c 7B68     		ldr	r3, [r7, #4]
 2969 008e 0122     		movs	r2, #1
 2970 0090 83F83D20 		strb	r2, [r3, #61]
ARM GAS  C:\Users\phucd\AppData\Local\Temp\ccc4tAyX.s 			page 76


1340:./Drivers/STM32F1xx_HAL_Driver/Src/stm32f1xx_hal_tim.c **** 
1341:./Drivers/STM32F1xx_HAL_Driver/Src/stm32f1xx_hal_tim.c ****   return HAL_OK;
 2971              		.loc 1 1341 10
 2972 0094 0023     		movs	r3, #0
 2973              	.L208:
1342:./Drivers/STM32F1xx_HAL_Driver/Src/stm32f1xx_hal_tim.c **** }
 2974              		.loc 1 1342 1
 2975 0096 1846     		mov	r0, r3
 2976 0098 0837     		adds	r7, r7, #8
 2977              		.cfi_def_cfa_offset 8
 2978 009a BD46     		mov	sp, r7
 2979              		.cfi_def_cfa_register 13
 2980              		@ sp needed
 2981 009c 80BD     		pop	{r7, pc}
 2982              		.cfi_endproc
 2983              	.LFE85:
 2985              		.section	.text.HAL_TIM_PWM_DeInit,"ax",%progbits
 2986              		.align	1
 2987              		.global	HAL_TIM_PWM_DeInit
 2988              		.syntax unified
 2989              		.thumb
 2990              		.thumb_func
 2991              		.fpu softvfp
 2993              	HAL_TIM_PWM_DeInit:
 2994              	.LFB86:
1343:./Drivers/STM32F1xx_HAL_Driver/Src/stm32f1xx_hal_tim.c **** 
1344:./Drivers/STM32F1xx_HAL_Driver/Src/stm32f1xx_hal_tim.c **** /**
1345:./Drivers/STM32F1xx_HAL_Driver/Src/stm32f1xx_hal_tim.c ****   * @brief  DeInitializes the TIM peripheral
1346:./Drivers/STM32F1xx_HAL_Driver/Src/stm32f1xx_hal_tim.c ****   * @param  htim TIM PWM handle
1347:./Drivers/STM32F1xx_HAL_Driver/Src/stm32f1xx_hal_tim.c ****   * @retval HAL status
1348:./Drivers/STM32F1xx_HAL_Driver/Src/stm32f1xx_hal_tim.c ****   */
1349:./Drivers/STM32F1xx_HAL_Driver/Src/stm32f1xx_hal_tim.c **** HAL_StatusTypeDef HAL_TIM_PWM_DeInit(TIM_HandleTypeDef *htim)
1350:./Drivers/STM32F1xx_HAL_Driver/Src/stm32f1xx_hal_tim.c **** {
 2995              		.loc 1 1350 1
 2996              		.cfi_startproc
 2997              		@ args = 0, pretend = 0, frame = 8
 2998              		@ frame_needed = 1, uses_anonymous_args = 0
 2999 0000 80B5     		push	{r7, lr}
 3000              		.cfi_def_cfa_offset 8
 3001              		.cfi_offset 7, -8
 3002              		.cfi_offset 14, -4
 3003 0002 82B0     		sub	sp, sp, #8
 3004              		.cfi_def_cfa_offset 16
 3005 0004 00AF     		add	r7, sp, #0
 3006              		.cfi_def_cfa_register 7
 3007 0006 7860     		str	r0, [r7, #4]
1351:./Drivers/STM32F1xx_HAL_Driver/Src/stm32f1xx_hal_tim.c ****   /* Check the parameters */
1352:./Drivers/STM32F1xx_HAL_Driver/Src/stm32f1xx_hal_tim.c ****   assert_param(IS_TIM_INSTANCE(htim->Instance));
1353:./Drivers/STM32F1xx_HAL_Driver/Src/stm32f1xx_hal_tim.c **** 
1354:./Drivers/STM32F1xx_HAL_Driver/Src/stm32f1xx_hal_tim.c ****   htim->State = HAL_TIM_STATE_BUSY;
 3008              		.loc 1 1354 15
 3009 0008 7B68     		ldr	r3, [r7, #4]
 3010 000a 0222     		movs	r2, #2
 3011 000c 83F83D20 		strb	r2, [r3, #61]
1355:./Drivers/STM32F1xx_HAL_Driver/Src/stm32f1xx_hal_tim.c **** 
1356:./Drivers/STM32F1xx_HAL_Driver/Src/stm32f1xx_hal_tim.c ****   /* Disable the TIM Peripheral Clock */
1357:./Drivers/STM32F1xx_HAL_Driver/Src/stm32f1xx_hal_tim.c ****   __HAL_TIM_DISABLE(htim);
ARM GAS  C:\Users\phucd\AppData\Local\Temp\ccc4tAyX.s 			page 77


 3012              		.loc 1 1357 3
 3013 0010 7B68     		ldr	r3, [r7, #4]
 3014 0012 1B68     		ldr	r3, [r3]
 3015 0014 1A6A     		ldr	r2, [r3, #32]
 3016 0016 41F21113 		movw	r3, #4369
 3017 001a 1340     		ands	r3, r3, r2
 3018 001c 002B     		cmp	r3, #0
 3019 001e 0FD1     		bne	.L211
 3020              		.loc 1 1357 3 is_stmt 0 discriminator 1
 3021 0020 7B68     		ldr	r3, [r7, #4]
 3022 0022 1B68     		ldr	r3, [r3]
 3023 0024 1A6A     		ldr	r2, [r3, #32]
 3024 0026 40F24443 		movw	r3, #1092
 3025 002a 1340     		ands	r3, r3, r2
 3026 002c 002B     		cmp	r3, #0
 3027 002e 07D1     		bne	.L211
 3028              		.loc 1 1357 3 discriminator 2
 3029 0030 7B68     		ldr	r3, [r7, #4]
 3030 0032 1B68     		ldr	r3, [r3]
 3031 0034 1A68     		ldr	r2, [r3]
 3032 0036 7B68     		ldr	r3, [r7, #4]
 3033 0038 1B68     		ldr	r3, [r3]
 3034 003a 22F00102 		bic	r2, r2, #1
 3035 003e 1A60     		str	r2, [r3]
 3036              	.L211:
1358:./Drivers/STM32F1xx_HAL_Driver/Src/stm32f1xx_hal_tim.c **** 
1359:./Drivers/STM32F1xx_HAL_Driver/Src/stm32f1xx_hal_tim.c **** #if (USE_HAL_TIM_REGISTER_CALLBACKS == 1)
1360:./Drivers/STM32F1xx_HAL_Driver/Src/stm32f1xx_hal_tim.c ****   if (htim->PWM_MspDeInitCallback == NULL)
1361:./Drivers/STM32F1xx_HAL_Driver/Src/stm32f1xx_hal_tim.c ****   {
1362:./Drivers/STM32F1xx_HAL_Driver/Src/stm32f1xx_hal_tim.c ****     htim->PWM_MspDeInitCallback = HAL_TIM_PWM_MspDeInit;
1363:./Drivers/STM32F1xx_HAL_Driver/Src/stm32f1xx_hal_tim.c ****   }
1364:./Drivers/STM32F1xx_HAL_Driver/Src/stm32f1xx_hal_tim.c ****   /* DeInit the low level hardware */
1365:./Drivers/STM32F1xx_HAL_Driver/Src/stm32f1xx_hal_tim.c ****   htim->PWM_MspDeInitCallback(htim);
1366:./Drivers/STM32F1xx_HAL_Driver/Src/stm32f1xx_hal_tim.c **** #else
1367:./Drivers/STM32F1xx_HAL_Driver/Src/stm32f1xx_hal_tim.c ****   /* DeInit the low level hardware: GPIO, CLOCK, NVIC and DMA */
1368:./Drivers/STM32F1xx_HAL_Driver/Src/stm32f1xx_hal_tim.c ****   HAL_TIM_PWM_MspDeInit(htim);
 3037              		.loc 1 1368 3 is_stmt 1
 3038 0040 7868     		ldr	r0, [r7, #4]
 3039 0042 FFF7FEFF 		bl	HAL_TIM_PWM_MspDeInit
1369:./Drivers/STM32F1xx_HAL_Driver/Src/stm32f1xx_hal_tim.c **** #endif /* USE_HAL_TIM_REGISTER_CALLBACKS */
1370:./Drivers/STM32F1xx_HAL_Driver/Src/stm32f1xx_hal_tim.c **** 
1371:./Drivers/STM32F1xx_HAL_Driver/Src/stm32f1xx_hal_tim.c ****   /* Change the DMA burst operation state */
