ARM GAS  C:\Users\phucd\AppData\Local\Temp\ccPY19mC.s 			page 1


   1              		.cpu cortex-m3
   2              		.eabi_attribute 20, 1
   3              		.eabi_attribute 21, 1
   4              		.eabi_attribute 23, 3
   5              		.eabi_attribute 24, 1
   6              		.eabi_attribute 25, 1
   7              		.eabi_attribute 26, 1
   8              		.eabi_attribute 30, 6
   9              		.eabi_attribute 34, 1
  10              		.eabi_attribute 18, 4
  11              		.file	"syscalls.c"
  12              		.text
  13              	.Ltext0:
  14              		.cfi_sections	.debug_frame
  15              		.global	__env
  16              		.section	.bss.__env,"aw",%nobits
  17              		.align	2
  20              	__env:
  21 0000 00000000 		.space	4
  22              		.global	environ
  23              		.section	.data.environ,"aw"
  24              		.align	2
  27              	environ:
  28 0000 00000000 		.word	__env
  29              		.section	.text.initialise_monitor_handles,"ax",%progbits
  30              		.align	1
  31              		.global	initialise_monitor_handles
  32              		.arch armv7-m
  33              		.syntax unified
  34              		.thumb
  35              		.thumb_func
  36              		.fpu softvfp
  38              	initialise_monitor_handles:
  39              	.LFB25:
  40              		.file 1 "./Core/Src/syscalls.c"
   1:./Core/Src/syscalls.c **** /**
   2:./Core/Src/syscalls.c ****  ******************************************************************************
   3:./Core/Src/syscalls.c ****  * @file      syscalls.c
   4:./Core/Src/syscalls.c ****  * @author    Auto-generated by STM32CubeIDE
   5:./Core/Src/syscalls.c ****  * @brief     STM32CubeIDE Minimal System calls file
   6:./Core/Src/syscalls.c ****  *
   7:./Core/Src/syscalls.c ****  *            For more information about which c-functions
   8:./Core/Src/syscalls.c ****  *            need which of these lowlevel functions
   9:./Core/Src/syscalls.c ****  *            please consult the Newlib libc-manual
  10:./Core/Src/syscalls.c ****  ******************************************************************************
  11:./Core/Src/syscalls.c ****  * @attention
  12:./Core/Src/syscalls.c ****  *
  13:./Core/Src/syscalls.c ****  * <h2><center>&copy; Copyright (c) 2020 STMicroelectronics.
  14:./Core/Src/syscalls.c ****  * All rights reserved.</center></h2>
  15:./Core/Src/syscalls.c ****  *
  16:./Core/Src/syscalls.c ****  * This software component is licensed by ST under BSD 3-Clause license,
  17:./Core/Src/syscalls.c ****  * the "License"; You may not use this file except in compliance with the
  18:./Core/Src/syscalls.c ****  * License. You may obtain a copy of the License at:
  19:./Core/Src/syscalls.c ****  *                        opensource.org/licenses/BSD-3-Clause
  20:./Core/Src/syscalls.c ****  *
  21:./Core/Src/syscalls.c ****  ******************************************************************************
  22:./Core/Src/syscalls.c ****  */
ARM GAS  C:\Users\phucd\AppData\Local\Temp\ccPY19mC.s 			page 2


  23:./Core/Src/syscalls.c **** 
  24:./Core/Src/syscalls.c **** /* Includes */
  25:./Core/Src/syscalls.c **** #include <sys/stat.h>
  26:./Core/Src/syscalls.c **** #include <stdlib.h>
  27:./Core/Src/syscalls.c **** #include <errno.h>
  28:./Core/Src/syscalls.c **** #include <stdio.h>
  29:./Core/Src/syscalls.c **** #include <signal.h>
  30:./Core/Src/syscalls.c **** #include <time.h>
  31:./Core/Src/syscalls.c **** #include <sys/time.h>
  32:./Core/Src/syscalls.c **** #include <sys/times.h>
  33:./Core/Src/syscalls.c **** 
  34:./Core/Src/syscalls.c **** 
  35:./Core/Src/syscalls.c **** /* Variables */
  36:./Core/Src/syscalls.c **** extern int __io_putchar(int ch) __attribute__((weak));
  37:./Core/Src/syscalls.c **** extern int __io_getchar(void) __attribute__((weak));
  38:./Core/Src/syscalls.c **** 
  39:./Core/Src/syscalls.c **** 
  40:./Core/Src/syscalls.c **** char *__env[1] = { 0 };
  41:./Core/Src/syscalls.c **** char **environ = __env;
  42:./Core/Src/syscalls.c **** 
  43:./Core/Src/syscalls.c **** 
  44:./Core/Src/syscalls.c **** /* Functions */
  45:./Core/Src/syscalls.c **** void initialise_monitor_handles()
  46:./Core/Src/syscalls.c **** {
  41              		.loc 1 46 1
  42              		.cfi_startproc
  43              		@ args = 0, pretend = 0, frame = 0
  44              		@ frame_needed = 1, uses_anonymous_args = 0
  45              		@ link register save eliminated.
  46 0000 80B4     		push	{r7}
  47              		.cfi_def_cfa_offset 4
  48              		.cfi_offset 7, -4
  49 0002 00AF     		add	r7, sp, #0
  50              		.cfi_def_cfa_register 7
  47:./Core/Src/syscalls.c **** }
  51              		.loc 1 47 1
  52 0004 00BF     		nop
  53 0006 BD46     		mov	sp, r7
  54              		.cfi_def_cfa_register 13
  55              		@ sp needed
  56 0008 80BC     		pop	{r7}
  57              		.cfi_restore 7
  58              		.cfi_def_cfa_offset 0
  59 000a 7047     		bx	lr
  60              		.cfi_endproc
  61              	.LFE25:
  63              		.section	.text._getpid,"ax",%progbits
  64              		.align	1
  65              		.global	_getpid
  66              		.syntax unified
  67              		.thumb
  68              		.thumb_func
  69              		.fpu softvfp
  71              	_getpid:
  72              	.LFB26:
  48:./Core/Src/syscalls.c **** 
  49:./Core/Src/syscalls.c **** int _getpid(void)
ARM GAS  C:\Users\phucd\AppData\Local\Temp\ccPY19mC.s 			page 3


  50:./Core/Src/syscalls.c **** {
  73              		.loc 1 50 1
  74              		.cfi_startproc
  75              		@ args = 0, pretend = 0, frame = 0
  76              		@ frame_needed = 1, uses_anonymous_args = 0
  77              		@ link register save eliminated.
  78 0000 80B4     		push	{r7}
  79              		.cfi_def_cfa_offset 4
  80              		.cfi_offset 7, -4
  81 0002 00AF     		add	r7, sp, #0
  82              		.cfi_def_cfa_register 7
  51:./Core/Src/syscalls.c **** 	return 1;
  83              		.loc 1 51 9
  84 0004 0123     		movs	r3, #1
  52:./Core/Src/syscalls.c **** }
  85              		.loc 1 52 1
  86 0006 1846     		mov	r0, r3
  87 0008 BD46     		mov	sp, r7
  88              		.cfi_def_cfa_register 13
  89              		@ sp needed
  90 000a 80BC     		pop	{r7}
  91              		.cfi_restore 7
  92              		.cfi_def_cfa_offset 0
  93 000c 7047     		bx	lr
  94              		.cfi_endproc
  95              	.LFE26:
  97              		.section	.text._kill,"ax",%progbits
  98              		.align	1
  99              		.global	_kill
 100              		.syntax unified
 101              		.thumb
 102              		.thumb_func
 103              		.fpu softvfp
 105              	_kill:
 106              	.LFB27:
  53:./Core/Src/syscalls.c **** 
  54:./Core/Src/syscalls.c **** int _kill(int pid, int sig)
  55:./Core/Src/syscalls.c **** {
 107              		.loc 1 55 1
 108              		.cfi_startproc
 109              		@ args = 0, pretend = 0, frame = 8
 110              		@ frame_needed = 1, uses_anonymous_args = 0
 111 0000 80B5     		push	{r7, lr}
 112              		.cfi_def_cfa_offset 8
 113              		.cfi_offset 7, -8
 114              		.cfi_offset 14, -4
 115 0002 82B0     		sub	sp, sp, #8
 116              		.cfi_def_cfa_offset 16
 117 0004 00AF     		add	r7, sp, #0
 118              		.cfi_def_cfa_register 7
 119 0006 7860     		str	r0, [r7, #4]
 120 0008 3960     		str	r1, [r7]
  56:./Core/Src/syscalls.c **** 	errno = EINVAL;
 121              		.loc 1 56 2
 122 000a FFF7FEFF 		bl	__errno
 123 000e 0346     		mov	r3, r0
 124              		.loc 1 56 8
ARM GAS  C:\Users\phucd\AppData\Local\Temp\ccPY19mC.s 			page 4


 125 0010 1622     		movs	r2, #22
 126 0012 1A60     		str	r2, [r3]
  57:./Core/Src/syscalls.c **** 	return -1;
 127              		.loc 1 57 9
 128 0014 4FF0FF33 		mov	r3, #-1
  58:./Core/Src/syscalls.c **** }
 129              		.loc 1 58 1
 130 0018 1846     		mov	r0, r3
 131 001a 0837     		adds	r7, r7, #8
 132              		.cfi_def_cfa_offset 8
 133 001c BD46     		mov	sp, r7
 134              		.cfi_def_cfa_register 13
 135              		@ sp needed
 136 001e 80BD     		pop	{r7, pc}
 137              		.cfi_endproc
 138              	.LFE27:
 140              		.section	.text._exit,"ax",%progbits
 141              		.align	1
 142              		.global	_exit
 143              		.syntax unified
 144              		.thumb
 145              		.thumb_func
 146              		.fpu softvfp
 148              	_exit:
 149              	.LFB28:
  59:./Core/Src/syscalls.c **** 
  60:./Core/Src/syscalls.c **** void _exit (int status)
  61:./Core/Src/syscalls.c **** {
 150              		.loc 1 61 1
 151              		.cfi_startproc
 152              		@ args = 0, pretend = 0, frame = 8
 153              		@ frame_needed = 1, uses_anonymous_args = 0
 154 0000 80B5     		push	{r7, lr}
 155              		.cfi_def_cfa_offset 8
 156              		.cfi_offset 7, -8
 157              		.cfi_offset 14, -4
 158 0002 82B0     		sub	sp, sp, #8
 159              		.cfi_def_cfa_offset 16
 160 0004 00AF     		add	r7, sp, #0
 161              		.cfi_def_cfa_register 7
 162 0006 7860     		str	r0, [r7, #4]
  62:./Core/Src/syscalls.c **** 	_kill(status, -1);
 163              		.loc 1 62 2
 164 0008 4FF0FF31 		mov	r1, #-1
 165 000c 7868     		ldr	r0, [r7, #4]
 166 000e FFF7FEFF 		bl	_kill
 167              	.L7:
  63:./Core/Src/syscalls.c **** 	while (1) {}		/* Make sure we hang here */
 168              		.loc 1 63 8 discriminator 1
 169 0012 FEE7     		b	.L7
 170              		.cfi_endproc
 171              	.LFE28:
 173              		.section	.text._read,"ax",%progbits
 174              		.align	1
 175              		.weak	_read
 176              		.syntax unified
 177              		.thumb
ARM GAS  C:\Users\phucd\AppData\Local\Temp\ccPY19mC.s 			page 5


 178              		.thumb_func
 179              		.fpu softvfp
 181              	_read:
 182              	.LFB29:
  64:./Core/Src/syscalls.c **** }
  65:./Core/Src/syscalls.c **** 
  66:./Core/Src/syscalls.c **** __attribute__((weak)) int _read(int file, char *ptr, int len)
  67:./Core/Src/syscalls.c **** {
 183              		.loc 1 67 1
 184              		.cfi_startproc
 185              		@ args = 0, pretend = 0, frame = 24
 186              		@ frame_needed = 1, uses_anonymous_args = 0
 187 0000 80B5     		push	{r7, lr}
 188              		.cfi_def_cfa_offset 8
 189              		.cfi_offset 7, -8
 190              		.cfi_offset 14, -4
 191 0002 86B0     		sub	sp, sp, #24
 192              		.cfi_def_cfa_offset 32
 193 0004 00AF     		add	r7, sp, #0
 194              		.cfi_def_cfa_register 7
 195 0006 F860     		str	r0, [r7, #12]
 196 0008 B960     		str	r1, [r7, #8]
 197 000a 7A60     		str	r2, [r7, #4]
  68:./Core/Src/syscalls.c **** 	int DataIdx;
  69:./Core/Src/syscalls.c **** 
  70:./Core/Src/syscalls.c **** 	for (DataIdx = 0; DataIdx < len; DataIdx++)
 198              		.loc 1 70 15
 199 000c 0023     		movs	r3, #0
 200 000e 7B61     		str	r3, [r7, #20]
 201              		.loc 1 70 2
 202 0010 0AE0     		b	.L9
 203              	.L10:
  71:./Core/Src/syscalls.c **** 	{
  72:./Core/Src/syscalls.c **** 		*ptr++ = __io_getchar();
 204              		.loc 1 72 12 discriminator 3
 205 0012 FFF7FEFF 		bl	__io_getchar
 206 0016 0146     		mov	r1, r0
 207              		.loc 1 72 7 discriminator 3
 208 0018 BB68     		ldr	r3, [r7, #8]
 209 001a 5A1C     		adds	r2, r3, #1
 210 001c BA60     		str	r2, [r7, #8]
 211              		.loc 1 72 10 discriminator 3
 212 001e CAB2     		uxtb	r2, r1
 213 0020 1A70     		strb	r2, [r3]
  70:./Core/Src/syscalls.c **** 	{
 214              		.loc 1 70 42 discriminator 3
 215 0022 7B69     		ldr	r3, [r7, #20]
 216 0024 0133     		adds	r3, r3, #1
 217 0026 7B61     		str	r3, [r7, #20]
 218              	.L9:
  70:./Core/Src/syscalls.c **** 	{
 219              		.loc 1 70 2 discriminator 1
 220 0028 7A69     		ldr	r2, [r7, #20]
 221 002a 7B68     		ldr	r3, [r7, #4]
 222 002c 9A42     		cmp	r2, r3
 223 002e F0DB     		blt	.L10
  73:./Core/Src/syscalls.c **** 	}
ARM GAS  C:\Users\phucd\AppData\Local\Temp\ccPY19mC.s 			page 6


  74:./Core/Src/syscalls.c **** 
  75:./Core/Src/syscalls.c **** return len;
 224              		.loc 1 75 8
 225 0030 7B68     		ldr	r3, [r7, #4]
  76:./Core/Src/syscalls.c **** }
 226              		.loc 1 76 1
 227 0032 1846     		mov	r0, r3
 228 0034 1837     		adds	r7, r7, #24
 229              		.cfi_def_cfa_offset 8
 230 0036 BD46     		mov	sp, r7
 231              		.cfi_def_cfa_register 13
 232              		@ sp needed
 233 0038 80BD     		pop	{r7, pc}
 234              		.cfi_endproc
 235              	.LFE29:
 237              		.section	.text._write,"ax",%progbits
 238              		.align	1
 239              		.weak	_write
 240              		.syntax unified
 241              		.thumb
 242              		.thumb_func
 243              		.fpu softvfp
 245              	_write:
 246              	.LFB30:
  77:./Core/Src/syscalls.c **** 
  78:./Core/Src/syscalls.c **** __attribute__((weak)) int _write(int file, char *ptr, int len)
  79:./Core/Src/syscalls.c **** {
 247              		.loc 1 79 1
 248              		.cfi_startproc
 249              		@ args = 0, pretend = 0, frame = 24
 250              		@ frame_needed = 1, uses_anonymous_args = 0
 251 0000 80B5     		push	{r7, lr}
 252              		.cfi_def_cfa_offset 8
 253              		.cfi_offset 7, -8
 254              		.cfi_offset 14, -4
 255 0002 86B0     		sub	sp, sp, #24
 256              		.cfi_def_cfa_offset 32
 257 0004 00AF     		add	r7, sp, #0
 258              		.cfi_def_cfa_register 7
 259 0006 F860     		str	r0, [r7, #12]
 260 0008 B960     		str	r1, [r7, #8]
 261 000a 7A60     		str	r2, [r7, #4]
  80:./Core/Src/syscalls.c **** 	int DataIdx;
  81:./Core/Src/syscalls.c **** 
  82:./Core/Src/syscalls.c **** 	for (DataIdx = 0; DataIdx < len; DataIdx++)
 262              		.loc 1 82 15
 263 000c 0023     		movs	r3, #0
 264 000e 7B61     		str	r3, [r7, #20]
 265              		.loc 1 82 2
 266 0010 09E0     		b	.L13
 267              	.L14:
  83:./Core/Src/syscalls.c **** 	{
  84:./Core/Src/syscalls.c **** 		__io_putchar(*ptr++);
 268              		.loc 1 84 20 discriminator 3
 269 0012 BB68     		ldr	r3, [r7, #8]
 270 0014 5A1C     		adds	r2, r3, #1
 271 0016 BA60     		str	r2, [r7, #8]
ARM GAS  C:\Users\phucd\AppData\Local\Temp\ccPY19mC.s 			page 7


 272              		.loc 1 84 16 discriminator 3
 273 0018 1B78     		ldrb	r3, [r3]	@ zero_extendqisi2
 274              		.loc 1 84 3 discriminator 3
 275 001a 1846     		mov	r0, r3
 276 001c FFF7FEFF 		bl	__io_putchar
  82:./Core/Src/syscalls.c **** 	{
 277              		.loc 1 82 42 discriminator 3
 278 0020 7B69     		ldr	r3, [r7, #20]
 279 0022 0133     		adds	r3, r3, #1
 280 0024 7B61     		str	r3, [r7, #20]
 281              	.L13:
  82:./Core/Src/syscalls.c **** 	{
 282              		.loc 1 82 2 discriminator 1
 283 0026 7A69     		ldr	r2, [r7, #20]
 284 0028 7B68     		ldr	r3, [r7, #4]
 285 002a 9A42     		cmp	r2, r3
 286 002c F1DB     		blt	.L14
  85:./Core/Src/syscalls.c **** 	}
  86:./Core/Src/syscalls.c **** 	return len;
 287              		.loc 1 86 9
 288 002e 7B68     		ldr	r3, [r7, #4]
  87:./Core/Src/syscalls.c **** }
 289              		.loc 1 87 1
 290 0030 1846     		mov	r0, r3
 291 0032 1837     		adds	r7, r7, #24
 292              		.cfi_def_cfa_offset 8
 293 0034 BD46     		mov	sp, r7
 294              		.cfi_def_cfa_register 13
 295              		@ sp needed
 296 0036 80BD     		pop	{r7, pc}
 297              		.cfi_endproc
 298              	.LFE30:
 300              		.section	.text._close,"ax",%progbits
 301              		.align	1
 302              		.global	_close
 303              		.syntax unified
 304              		.thumb
 305              		.thumb_func
 306              		.fpu softvfp
 308              	_close:
 309              	.LFB31:
  88:./Core/Src/syscalls.c **** 
  89:./Core/Src/syscalls.c **** int _close(int file)
  90:./Core/Src/syscalls.c **** {
 310              		.loc 1 90 1
 311              		.cfi_startproc
 312              		@ args = 0, pretend = 0, frame = 8
 313              		@ frame_needed = 1, uses_anonymous_args = 0
 314              		@ link register save eliminated.
 315 0000 80B4     		push	{r7}
 316              		.cfi_def_cfa_offset 4
 317              		.cfi_offset 7, -4
 318 0002 83B0     		sub	sp, sp, #12
 319              		.cfi_def_cfa_offset 16
 320 0004 00AF     		add	r7, sp, #0
 321              		.cfi_def_cfa_register 7
 322 0006 7860     		str	r0, [r7, #4]
ARM GAS  C:\Users\phucd\AppData\Local\Temp\ccPY19mC.s 			page 8


  91:./Core/Src/syscalls.c **** 	return -1;
 323              		.loc 1 91 9
 324 0008 4FF0FF33 		mov	r3, #-1
  92:./Core/Src/syscalls.c **** }
 325              		.loc 1 92 1
 326 000c 1846     		mov	r0, r3
 327 000e 0C37     		adds	r7, r7, #12
 328              		.cfi_def_cfa_offset 4
 329 0010 BD46     		mov	sp, r7
 330              		.cfi_def_cfa_register 13
 331              		@ sp needed
 332 0012 80BC     		pop	{r7}
 333              		.cfi_restore 7
 334              		.cfi_def_cfa_offset 0
 335 0014 7047     		bx	lr
 336              		.cfi_endproc
 337              	.LFE31:
 339              		.section	.text._fstat,"ax",%progbits
 340              		.align	1
 341              		.global	_fstat
 342              		.syntax unified
 343              		.thumb
 344              		.thumb_func
 345              		.fpu softvfp
 347              	_fstat:
 348              	.LFB32:
  93:./Core/Src/syscalls.c **** 
  94:./Core/Src/syscalls.c **** 
  95:./Core/Src/syscalls.c **** int _fstat(int file, struct stat *st)
  96:./Core/Src/syscalls.c **** {
 349              		.loc 1 96 1
 350              		.cfi_startproc
 351              		@ args = 0, pretend = 0, frame = 8
 352              		@ frame_needed = 1, uses_anonymous_args = 0
 353              		@ link register save eliminated.
 354 0000 80B4     		push	{r7}
 355              		.cfi_def_cfa_offset 4
 356              		.cfi_offset 7, -4
 357 0002 83B0     		sub	sp, sp, #12
 358              		.cfi_def_cfa_offset 16
 359 0004 00AF     		add	r7, sp, #0
 360              		.cfi_def_cfa_register 7
 361 0006 7860     		str	r0, [r7, #4]
 362 0008 3960     		str	r1, [r7]
  97:./Core/Src/syscalls.c **** 	st->st_mode = S_IFCHR;
 363              		.loc 1 97 14
 364 000a 3B68     		ldr	r3, [r7]
 365 000c 4FF40052 		mov	r2, #8192
 366 0010 5A60     		str	r2, [r3, #4]
  98:./Core/Src/syscalls.c **** 	return 0;
 367              		.loc 1 98 9
 368 0012 0023     		movs	r3, #0
  99:./Core/Src/syscalls.c **** }
 369              		.loc 1 99 1
 370 0014 1846     		mov	r0, r3
 371 0016 0C37     		adds	r7, r7, #12
 372              		.cfi_def_cfa_offset 4
ARM GAS  C:\Users\phucd\AppData\Local\Temp\ccPY19mC.s 			page 9


 373 0018 BD46     		mov	sp, r7
 374              		.cfi_def_cfa_register 13
 375              		@ sp needed
 376 001a 80BC     		pop	{r7}
 377              		.cfi_restore 7
 378              		.cfi_def_cfa_offset 0
 379 001c 7047     		bx	lr
 380              		.cfi_endproc
 381              	.LFE32:
 383              		.section	.text._isatty,"ax",%progbits
 384              		.align	1
 385              		.global	_isatty
 386              		.syntax unified
 387              		.thumb
 388              		.thumb_func
 389              		.fpu softvfp
 391              	_isatty:
 392              	.LFB33:
 100:./Core/Src/syscalls.c **** 
 101:./Core/Src/syscalls.c **** int _isatty(int file)
 102:./Core/Src/syscalls.c **** {
 393              		.loc 1 102 1
 394              		.cfi_startproc
 395              		@ args = 0, pretend = 0, frame = 8
 396              		@ frame_needed = 1, uses_anonymous_args = 0
 397              		@ link register save eliminated.
 398 0000 80B4     		push	{r7}
 399              		.cfi_def_cfa_offset 4
 400              		.cfi_offset 7, -4
 401 0002 83B0     		sub	sp, sp, #12
 402              		.cfi_def_cfa_offset 16
 403 0004 00AF     		add	r7, sp, #0
 404              		.cfi_def_cfa_register 7
 405 0006 7860     		str	r0, [r7, #4]
 103:./Core/Src/syscalls.c **** 	return 1;
 406              		.loc 1 103 9
 407 0008 0123     		movs	r3, #1
 104:./Core/Src/syscalls.c **** }
 408              		.loc 1 104 1
 409 000a 1846     		mov	r0, r3
 410 000c 0C37     		adds	r7, r7, #12
 411              		.cfi_def_cfa_offset 4
 412 000e BD46     		mov	sp, r7
 413              		.cfi_def_cfa_register 13
 414              		@ sp needed
 415 0010 80BC     		pop	{r7}
 416              		.cfi_restore 7
 417              		.cfi_def_cfa_offset 0
 418 0012 7047     		bx	lr
 419              		.cfi_endproc
 420              	.LFE33:
 422              		.section	.text._lseek,"ax",%progbits
 423              		.align	1
 424              		.global	_lseek
 425              		.syntax unified
 426              		.thumb
 427              		.thumb_func
ARM GAS  C:\Users\phucd\AppData\Local\Temp\ccPY19mC.s 			page 10


 428              		.fpu softvfp
 430              	_lseek:
 431              	.LFB34:
 105:./Core/Src/syscalls.c **** 
 106:./Core/Src/syscalls.c **** int _lseek(int file, int ptr, int dir)
 107:./Core/Src/syscalls.c **** {
 432              		.loc 1 107 1
 433              		.cfi_startproc
 434              		@ args = 0, pretend = 0, frame = 16
 435              		@ frame_needed = 1, uses_anonymous_args = 0
 436              		@ link register save eliminated.
 437 0000 80B4     		push	{r7}
 438              		.cfi_def_cfa_offset 4
 439              		.cfi_offset 7, -4
 440 0002 85B0     		sub	sp, sp, #20
 441              		.cfi_def_cfa_offset 24
 442 0004 00AF     		add	r7, sp, #0
 443              		.cfi_def_cfa_register 7
 444 0006 F860     		str	r0, [r7, #12]
 445 0008 B960     		str	r1, [r7, #8]
 446 000a 7A60     		str	r2, [r7, #4]
 108:./Core/Src/syscalls.c **** 	return 0;
 447              		.loc 1 108 9
 448 000c 0023     		movs	r3, #0
 109:./Core/Src/syscalls.c **** }
 449              		.loc 1 109 1
 450 000e 1846     		mov	r0, r3
 451 0010 1437     		adds	r7, r7, #20
 452              		.cfi_def_cfa_offset 4
 453 0012 BD46     		mov	sp, r7
 454              		.cfi_def_cfa_register 13
 455              		@ sp needed
 456 0014 80BC     		pop	{r7}
 457              		.cfi_restore 7
 458              		.cfi_def_cfa_offset 0
 459 0016 7047     		bx	lr
 460              		.cfi_endproc
 461              	.LFE34:
 463              		.section	.text._open,"ax",%progbits
 464              		.align	1
 465              		.global	_open
 466              		.syntax unified
 467              		.thumb
 468              		.thumb_func
 469              		.fpu softvfp
 471              	_open:
 472              	.LFB35:
 110:./Core/Src/syscalls.c **** 
 111:./Core/Src/syscalls.c **** int _open(char *path, int flags, ...)
 112:./Core/Src/syscalls.c **** {
 473              		.loc 1 112 1
 474              		.cfi_startproc
 475              		@ args = 4, pretend = 12, frame = 8
 476              		@ frame_needed = 1, uses_anonymous_args = 1
 477              		@ link register save eliminated.
 478 0000 0EB4     		push	{r1, r2, r3}
 479              		.cfi_def_cfa_offset 12
ARM GAS  C:\Users\phucd\AppData\Local\Temp\ccPY19mC.s 			page 11


 480              		.cfi_offset 1, -12
 481              		.cfi_offset 2, -8
 482              		.cfi_offset 3, -4
 483 0002 80B4     		push	{r7}
 484              		.cfi_def_cfa_offset 16
 485              		.cfi_offset 7, -16
 486 0004 82B0     		sub	sp, sp, #8
 487              		.cfi_def_cfa_offset 24
 488 0006 00AF     		add	r7, sp, #0
 489              		.cfi_def_cfa_register 7
 490 0008 7860     		str	r0, [r7, #4]
 113:./Core/Src/syscalls.c **** 	/* Pretend like we always fail */
 114:./Core/Src/syscalls.c **** 	return -1;
 491              		.loc 1 114 9
 492 000a 4FF0FF33 		mov	r3, #-1
 115:./Core/Src/syscalls.c **** }
 493              		.loc 1 115 1
 494 000e 1846     		mov	r0, r3
 495 0010 0837     		adds	r7, r7, #8
 496              		.cfi_def_cfa_offset 16
 497 0012 BD46     		mov	sp, r7
 498              		.cfi_def_cfa_register 13
 499              		@ sp needed
 500 0014 80BC     		pop	{r7}
 501              		.cfi_restore 7
 502              		.cfi_def_cfa_offset 12
 503 0016 03B0     		add	sp, sp, #12
 504              		.cfi_restore 3
 505              		.cfi_restore 2
 506              		.cfi_restore 1
 507              		.cfi_def_cfa_offset 0
 508 0018 7047     		bx	lr
 509              		.cfi_endproc
 510              	.LFE35:
 512              		.section	.text._wait,"ax",%progbits
 513              		.align	1
 514              		.global	_wait
 515              		.syntax unified
 516              		.thumb
 517              		.thumb_func
 518              		.fpu softvfp
 520              	_wait:
 521              	.LFB36:
 116:./Core/Src/syscalls.c **** 
 117:./Core/Src/syscalls.c **** int _wait(int *status)
 118:./Core/Src/syscalls.c **** {
 522              		.loc 1 118 1
 523              		.cfi_startproc
 524              		@ args = 0, pretend = 0, frame = 8
 525              		@ frame_needed = 1, uses_anonymous_args = 0
 526 0000 80B5     		push	{r7, lr}
 527              		.cfi_def_cfa_offset 8
 528              		.cfi_offset 7, -8
 529              		.cfi_offset 14, -4
 530 0002 82B0     		sub	sp, sp, #8
 531              		.cfi_def_cfa_offset 16
 532 0004 00AF     		add	r7, sp, #0
ARM GAS  C:\Users\phucd\AppData\Local\Temp\ccPY19mC.s 			page 12


 533              		.cfi_def_cfa_register 7
 534 0006 7860     		str	r0, [r7, #4]
 119:./Core/Src/syscalls.c **** 	errno = ECHILD;
 535              		.loc 1 119 2
 536 0008 FFF7FEFF 		bl	__errno
 537 000c 0346     		mov	r3, r0
 538              		.loc 1 119 8
 539 000e 0A22     		movs	r2, #10
 540 0010 1A60     		str	r2, [r3]
 120:./Core/Src/syscalls.c **** 	return -1;
 541              		.loc 1 120 9
 542 0012 4FF0FF33 		mov	r3, #-1
 121:./Core/Src/syscalls.c **** }
 543              		.loc 1 121 1
 544 0016 1846     		mov	r0, r3
 545 0018 0837     		adds	r7, r7, #8
 546              		.cfi_def_cfa_offset 8
 547 001a BD46     		mov	sp, r7
 548              		.cfi_def_cfa_register 13
 549              		@ sp needed
 550 001c 80BD     		pop	{r7, pc}
 551              		.cfi_endproc
 552              	.LFE36:
 554              		.section	.text._unlink,"ax",%progbits
 555              		.align	1
 556              		.global	_unlink
 557              		.syntax unified
 558              		.thumb
 559              		.thumb_func
 560              		.fpu softvfp
 562              	_unlink:
 563              	.LFB37:
 122:./Core/Src/syscalls.c **** 
 123:./Core/Src/syscalls.c **** int _unlink(char *name)
 124:./Core/Src/syscalls.c **** {
 564              		.loc 1 124 1
 565              		.cfi_startproc
 566              		@ args = 0, pretend = 0, frame = 8
 567              		@ frame_needed = 1, uses_anonymous_args = 0
 568 0000 80B5     		push	{r7, lr}
 569              		.cfi_def_cfa_offset 8
 570              		.cfi_offset 7, -8
 571              		.cfi_offset 14, -4
 572 0002 82B0     		sub	sp, sp, #8
 573              		.cfi_def_cfa_offset 16
 574 0004 00AF     		add	r7, sp, #0
 575              		.cfi_def_cfa_register 7
 576 0006 7860     		str	r0, [r7, #4]
 125:./Core/Src/syscalls.c **** 	errno = ENOENT;
 577              		.loc 1 125 2
 578 0008 FFF7FEFF 		bl	__errno
 579 000c 0346     		mov	r3, r0
 580              		.loc 1 125 8
 581 000e 0222     		movs	r2, #2
 582 0010 1A60     		str	r2, [r3]
 126:./Core/Src/syscalls.c **** 	return -1;
 583              		.loc 1 126 9
ARM GAS  C:\Users\phucd\AppData\Local\Temp\ccPY19mC.s 			page 13


 584 0012 4FF0FF33 		mov	r3, #-1
 127:./Core/Src/syscalls.c **** }
 585              		.loc 1 127 1
 586 0016 1846     		mov	r0, r3
 587 0018 0837     		adds	r7, r7, #8
 588              		.cfi_def_cfa_offset 8
 589 001a BD46     		mov	sp, r7
 590              		.cfi_def_cfa_register 13
 591              		@ sp needed
 592 001c 80BD     		pop	{r7, pc}
 593              		.cfi_endproc
 594              	.LFE37:
 596              		.section	.text._times,"ax",%progbits
 597              		.align	1
 598              		.global	_times
 599              		.syntax unified
 600              		.thumb
 601              		.thumb_func
 602              		.fpu softvfp
 604              	_times:
 605              	.LFB38:
 128:./Core/Src/syscalls.c **** 
 129:./Core/Src/syscalls.c **** int _times(struct tms *buf)
 130:./Core/Src/syscalls.c **** {
 606              		.loc 1 130 1
 607              		.cfi_startproc
 608              		@ args = 0, pretend = 0, frame = 8
 609              		@ frame_needed = 1, uses_anonymous_args = 0
 610              		@ link register save eliminated.
 611 0000 80B4     		push	{r7}
 612              		.cfi_def_cfa_offset 4
 613              		.cfi_offset 7, -4
 614 0002 83B0     		sub	sp, sp, #12
 615              		.cfi_def_cfa_offset 16
 616 0004 00AF     		add	r7, sp, #0
 617              		.cfi_def_cfa_register 7
 618 0006 7860     		str	r0, [r7, #4]
 131:./Core/Src/syscalls.c **** 	return -1;
 619              		.loc 1 131 9
 620 0008 4FF0FF33 		mov	r3, #-1
 132:./Core/Src/syscalls.c **** }
 621              		.loc 1 132 1
 622 000c 1846     		mov	r0, r3
 623 000e 0C37     		adds	r7, r7, #12
 624              		.cfi_def_cfa_offset 4
 625 0010 BD46     		mov	sp, r7
 626              		.cfi_def_cfa_register 13
 627              		@ sp needed
 628 0012 80BC     		pop	{r7}
 629              		.cfi_restore 7
 630              		.cfi_def_cfa_offset 0
 631 0014 7047     		bx	lr
 632              		.cfi_endproc
 633              	.LFE38:
 635              		.section	.text._stat,"ax",%progbits
 636              		.align	1
 637              		.global	_stat
ARM GAS  C:\Users\phucd\AppData\Local\Temp\ccPY19mC.s 			page 14


 638              		.syntax unified
 639              		.thumb
 640              		.thumb_func
 641              		.fpu softvfp
 643              	_stat:
 644              	.LFB39:
 133:./Core/Src/syscalls.c **** 
 134:./Core/Src/syscalls.c **** int _stat(char *file, struct stat *st)
 135:./Core/Src/syscalls.c **** {
 645              		.loc 1 135 1
 646              		.cfi_startproc
 647              		@ args = 0, pretend = 0, frame = 8
 648              		@ frame_needed = 1, uses_anonymous_args = 0
 649              		@ link register save eliminated.
 650 0000 80B4     		push	{r7}
 651              		.cfi_def_cfa_offset 4
 652              		.cfi_offset 7, -4
 653 0002 83B0     		sub	sp, sp, #12
 654              		.cfi_def_cfa_offset 16
 655 0004 00AF     		add	r7, sp, #0
 656              		.cfi_def_cfa_register 7
 657 0006 7860     		str	r0, [r7, #4]
 658 0008 3960     		str	r1, [r7]
 136:./Core/Src/syscalls.c **** 	st->st_mode = S_IFCHR;
 659              		.loc 1 136 14
 660 000a 3B68     		ldr	r3, [r7]
 661 000c 4FF40052 		mov	r2, #8192
 662 0010 5A60     		str	r2, [r3, #4]
 137:./Core/Src/syscalls.c **** 	return 0;
 663              		.loc 1 137 9
 664 0012 0023     		movs	r3, #0
 138:./Core/Src/syscalls.c **** }
 665              		.loc 1 138 1
 666 0014 1846     		mov	r0, r3
 667 0016 0C37     		adds	r7, r7, #12
 668              		.cfi_def_cfa_offset 4
 669 0018 BD46     		mov	sp, r7
 670              		.cfi_def_cfa_register 13
 671              		@ sp needed
 672 001a 80BC     		pop	{r7}
 673              		.cfi_restore 7
 674              		.cfi_def_cfa_offset 0
 675 001c 7047     		bx	lr
 676              		.cfi_endproc
 677              	.LFE39:
 679              		.section	.text._link,"ax",%progbits
 680              		.align	1
 681              		.global	_link
 682              		.syntax unified
 683              		.thumb
 684              		.thumb_func
 685              		.fpu softvfp
 687              	_link:
 688              	.LFB40:
 139:./Core/Src/syscalls.c **** 
 140:./Core/Src/syscalls.c **** int _link(char *old, char *new)
 141:./Core/Src/syscalls.c **** {
ARM GAS  C:\Users\phucd\AppData\Local\Temp\ccPY19mC.s 			page 15


 689              		.loc 1 141 1
 690              		.cfi_startproc
 691              		@ args = 0, pretend = 0, frame = 8
 692              		@ frame_needed = 1, uses_anonymous_args = 0
 693 0000 80B5     		push	{r7, lr}
 694              		.cfi_def_cfa_offset 8
 695              		.cfi_offset 7, -8
 696              		.cfi_offset 14, -4
 697 0002 82B0     		sub	sp, sp, #8
 698              		.cfi_def_cfa_offset 16
 699 0004 00AF     		add	r7, sp, #0
 700              		.cfi_def_cfa_register 7
 701 0006 7860     		str	r0, [r7, #4]
 702 0008 3960     		str	r1, [r7]
 142:./Core/Src/syscalls.c **** 	errno = EMLINK;
 703              		.loc 1 142 2
 704 000a FFF7FEFF 		bl	__errno
 705 000e 0346     		mov	r3, r0
 706              		.loc 1 142 8
 707 0010 1F22     		movs	r2, #31
 708 0012 1A60     		str	r2, [r3]
 143:./Core/Src/syscalls.c **** 	return -1;
 709              		.loc 1 143 9
 710 0014 4FF0FF33 		mov	r3, #-1
 144:./Core/Src/syscalls.c **** }
 711              		.loc 1 144 1
 712 0018 1846     		mov	r0, r3
 713 001a 0837     		adds	r7, r7, #8
 714              		.cfi_def_cfa_offset 8
 715 001c BD46     		mov	sp, r7
 716              		.cfi_def_cfa_register 13
 717              		@ sp needed
 718 001e 80BD     		pop	{r7, pc}
 719              		.cfi_endproc
 720              	.LFE40:
 722              		.section	.text._fork,"ax",%progbits
 723              		.align	1
 724              		.global	_fork
 725              		.syntax unified
 726              		.thumb
 727              		.thumb_func
 728              		.fpu softvfp
 730              	_fork:
 731              	.LFB41:
 145:./Core/Src/syscalls.c **** 
 146:./Core/Src/syscalls.c **** int _fork(void)
 147:./Core/Src/syscalls.c **** {
 732              		.loc 1 147 1
 733              		.cfi_startproc
 734              		@ args = 0, pretend = 0, frame = 0
 735              		@ frame_needed = 1, uses_anonymous_args = 0
 736 0000 80B5     		push	{r7, lr}
 737              		.cfi_def_cfa_offset 8
 738              		.cfi_offset 7, -8
 739              		.cfi_offset 14, -4
 740 0002 00AF     		add	r7, sp, #0
 741              		.cfi_def_cfa_register 7
ARM GAS  C:\Users\phucd\AppData\Local\Temp\ccPY19mC.s 			page 16


 148:./Core/Src/syscalls.c **** 	errno = EAGAIN;
 742              		.loc 1 148 2
 743 0004 FFF7FEFF 		bl	__errno
 744 0008 0346     		mov	r3, r0
 745              		.loc 1 148 8
 746 000a 0B22     		movs	r2, #11
 747 000c 1A60     		str	r2, [r3]
 149:./Core/Src/syscalls.c **** 	return -1;
 748              		.loc 1 149 9
 749 000e 4FF0FF33 		mov	r3, #-1
 150:./Core/Src/syscalls.c **** }
 750              		.loc 1 150 1
 751 0012 1846     		mov	r0, r3
 752 0014 80BD     		pop	{r7, pc}
 753              		.cfi_endproc
 754              	.LFE41:
 756              		.section	.text._execve,"ax",%progbits
 757              		.align	1
 758              		.global	_execve
 759              		.syntax unified
 760              		.thumb
 761              		.thumb_func
 762              		.fpu softvfp
 764              	_execve:
 765              	.LFB42:
 151:./Core/Src/syscalls.c **** 
 152:./Core/Src/syscalls.c **** int _execve(char *name, char **argv, char **env)
 153:./Core/Src/syscalls.c **** {
 766              		.loc 1 153 1
 767              		.cfi_startproc
 768              		@ args = 0, pretend = 0, frame = 16
 769              		@ frame_needed = 1, uses_anonymous_args = 0
 770 0000 80B5     		push	{r7, lr}
 771              		.cfi_def_cfa_offset 8
 772              		.cfi_offset 7, -8
 773              		.cfi_offset 14, -4
 774 0002 84B0     		sub	sp, sp, #16
 775              		.cfi_def_cfa_offset 24
 776 0004 00AF     		add	r7, sp, #0
 777              		.cfi_def_cfa_register 7
 778 0006 F860     		str	r0, [r7, #12]
 779 0008 B960     		str	r1, [r7, #8]
 780 000a 7A60     		str	r2, [r7, #4]
 154:./Core/Src/syscalls.c **** 	errno = ENOMEM;
 781              		.loc 1 154 2
 782 000c FFF7FEFF 		bl	__errno
 783 0010 0346     		mov	r3, r0
 784              		.loc 1 154 8
 785 0012 0C22     		movs	r2, #12
 786 0014 1A60     		str	r2, [r3]
 155:./Core/Src/syscalls.c **** 	return -1;
 787              		.loc 1 155 9
 788 0016 4FF0FF33 		mov	r3, #-1
 156:./Core/Src/syscalls.c **** }
 789              		.loc 1 156 1
 790 001a 1846     		mov	r0, r3
 791 001c 1037     		adds	r7, r7, #16
ARM GAS  C:\Users\phucd\AppData\Local\Temp\ccPY19mC.s 			page 17


 792              		.cfi_def_cfa_offset 8
 793 001e BD46     		mov	sp, r7
 794              		.cfi_def_cfa_register 13
 795              		@ sp needed
 796 0020 80BD     		pop	{r7, pc}
 797              		.cfi_endproc
 798              	.LFE42:
 800              		.weak	__io_putchar
 801              		.weak	__io_getchar
 802              		.text
 803              	.Letext0:
 804              		.file 2 "c:\\st\\stm32cubeide_1.7.0\\stm32cubeide\\plugins\\com.st.stm32cube.ide.mcu.externaltools
 805              		.file 3 "c:\\st\\stm32cubeide_1.7.0\\stm32cubeide\\plugins\\com.st.stm32cube.ide.mcu.externaltools
 806              		.file 4 "c:\\st\\stm32cubeide_1.7.0\\stm32cubeide\\plugins\\com.st.stm32cube.ide.mcu.externaltools
 807              		.file 5 "c:\\st\\stm32cubeide_1.7.0\\stm32cubeide\\plugins\\com.st.stm32cube.ide.mcu.externaltools
 808              		.file 6 "c:\\st\\stm32cubeide_1.7.0\\stm32cubeide\\plugins\\com.st.stm32cube.ide.mcu.externaltools
 809              		.file 7 "c:\\st\\stm32cubeide_1.7.0\\stm32cubeide\\plugins\\com.st.stm32cube.ide.mcu.externaltools
 810              		.file 8 "c:\\st\\stm32cubeide_1.7.0\\stm32cubeide\\plugins\\com.st.stm32cube.ide.mcu.externaltools
 811              		.file 9 "c:\\st\\stm32cubeide_1.7.0\\stm32cubeide\\plugins\\com.st.stm32cube.ide.mcu.externaltools
 812              		.file 10 "c:\\st\\stm32cubeide_1.7.0\\stm32cubeide\\plugins\\com.st.stm32cube.ide.mcu.externaltool
 813              		.file 11 "c:\\st\\stm32cubeide_1.7.0\\stm32cubeide\\plugins\\com.st.stm32cube.ide.mcu.externaltool
 814              		.file 12 "c:\\st\\stm32cubeide_1.7.0\\stm32cubeide\\plugins\\com.st.stm32cube.ide.mcu.externaltool
 815              		.file 13 "c:\\st\\stm32cubeide_1.7.0\\stm32cubeide\\plugins\\com.st.stm32cube.ide.mcu.externaltool
 816              		.file 14 "c:\\st\\stm32cubeide_1.7.0\\stm32cubeide\\plugins\\com.st.stm32cube.ide.mcu.externaltool
ARM GAS  C:\Users\phucd\AppData\Local\Temp\ccPY19mC.s 			page 18

